Certificate Request:
    Data:
        Version: 0 (0x0)
        Subject: C=FR, O=NodeOPCUA, CN=NodeOPCUA
        Subject Public Key Info:
            Public Key Algorithm: rsaEncryption
                Public-Key: (3072 bit)
                Modulus:
                    00:b9:8b:57:11:e8:5c:5f:2a:c1:e8:77:d9:69:8f:
                    80:03:1f:51:1c:a2:5e:91:42:9d:38:51:e0:8a:a6:
                    6f:b4:53:bd:79:fb:3a:37:4d:c8:70:1b:38:0b:41:
                    30:4c:b5:b6:70:de:af:47:12:fa:70:d3:a9:23:77:
                    29:d2:3d:dc:30:f3:b7:6e:31:73:b4:cd:ee:58:b8:
                    0c:c0:13:92:a6:d1:8a:b4:38:43:f0:22:f5:9a:1d:
                    0f:7f:45:48:e9:c6:1f:14:03:da:90:87:ba:1c:4d:
                    15:22:3c:ae:71:4c:0b:53:30:cb:5b:6f:51:d1:89:
                    e0:f0:64:45:fc:e3:2c:71:71:58:48:81:1b:b8:95:
                    07:97:a6:3e:a2:c3:12:08:2c:c1:cb:e4:cc:50:30:
                    fa:48:6a:91:bf:99:1e:38:b3:ae:98:f0:ff:95:8b:
                    df:cd:4a:72:77:df:70:35:70:6d:b5:4a:63:23:e9:
                    3e:25:02:2a:00:b9:20:c8:ec:eb:75:f9:9c:14:8c:
                    22:5f:2b:dd:47:e3:a8:49:d7:3d:b0:49:74:c0:b6:
                    e3:1a:ed:60:23:f1:19:5b:be:0b:87:4a:0f:e8:3e:
                    74:e1:38:2b:5e:6b:26:c7:99:df:04:9c:4a:3b:1f:
                    a7:3c:62:1a:8f:02:ae:24:54:fe:13:cb:16:3e:93:
                    65:48:5e:ab:1c:e8:2d:26:a0:57:38:50:92:ef:7c:
                    39:ae:ed:d0:2a:f9:fb:2c:2c:2d:2c:2d:db:ff:5e:
                    d5:d2:72:6e:48:1a:25:d4:c8:ac:54:f2:69:22:a1:
                    48:ea:9b:fb:36:6d:0f:4e:db:fa:83:42:00:3c:01:
                    c5:3b:f9:fc:ae:44:96:1e:ea:de:03:3c:fb:e5:6a:
                    0f:fc:09:c9:22:c7:c8:f3:03:bd:66:0d:36:f0:35:
                    1c:21:cd:e8:4e:63:1f:0a:4c:f3:4c:12:65:9f:03:
                    a3:d0:7c:4e:41:0d:62:a5:57:d8:6a:98:fd:4a:13:
                    59:ae:e3:a1:98:3c:18:57:41:07
                Exponent: 65537 (0x10001)
        Attributes:
        Requested Extensions:
            X509v3 Basic Constraints: 
                CA:FALSE
            X509v3 Key Usage: critical
                Certificate Sign, CRL Sign
            X509v3 Subject Alternative Name: 
                URI:undefined
    Signature Algorithm: sha256WithRSAEncryption
         a3:03:37:e9:f1:c3:bf:45:ce:02:78:3e:f8:4e:d9:21:c4:6b:
         b8:78:ba:81:8b:bc:e7:03:f3:b9:97:57:07:ad:8b:f2:9f:73:
         77:5f:44:63:69:22:47:8d:ba:29:20:3f:07:6b:c1:79:ac:8c:
         2b:9a:65:75:b0:72:a6:cd:8c:76:d5:7c:d9:01:fc:50:69:bf:
         68:d9:11:d4:01:12:32:8b:6c:f7:b6:cb:3d:54:f3:0f:c7:1f:
         14:db:8f:93:5d:81:0a:04:e3:ac:78:a2:7d:46:df:9c:36:0c:
         86:48:79:9d:d4:c9:53:3c:4a:09:3f:97:da:ba:5c:06:90:dc:
         6c:c7:11:1b:ad:45:88:6b:97:37:63:8a:ff:a2:2e:3e:70:e1:
         1e:cf:49:87:27:1b:d4:07:cf:3f:91:79:e1:0e:bb:76:b8:29:
         02:2c:49:55:43:90:5c:be:02:87:f4:7e:cb:16:ab:ac:b0:a8:
         d1:02:7c:ab:a9:cd:97:6b:6b:35:0f:00:02:33:34:b2:6e:40:
         5e:4a:da:17:c8:15:1e:eb:6b:29:6b:d4:c5:1a:37:ae:7d:34:
         57:0c:d8:d1:3b:6f:3b:80:2a:17:79:27:ee:82:4a:ec:3b:71:
         da:dd:d9:ff:7b:2e:63:20:c0:b0:9b:da:72:06:0c:1d:91:ee:
         10:95:45:dc:29:6f:dd:15:12:6c:71:5f:b2:4a:c9:52:93:cb:
         31:c9:aa:0c:bc:c3:f2:c5:a6:f7:06:37:66:ac:6a:5f:88:2f:
         c2:18:49:b7:5c:92:6a:48:9d:7f:03:75:87:e4:7f:f0:36:e2:
         fd:6d:5a:ee:4b:b2:d5:61:32:43:d8:9b:c6:59:40:d8:9c:68:
         bd:c1:df:13:35:2c:1f:30:0b:96:ed:6e:83:87:5b:b6:5e:c9:
         2e:5e:98:ed:72:09:0d:28:c0:f6:75:83:6e:c4:8e:40:9a:37:
         70:75:79:50:5f:d4:54:13:0b:23:fe:a8:0e:41:e4:50:01:54:
         21:74:c5:69:e5:3c
-----BEGIN CERTIFICATE REQUEST-----
MIIDvDCCAiQCAQAwNTELMAkGA1UEBhMCRlIxEjAQBgNVBAoMCU5vZGVPUENVQTES
MBAGA1UEAwwJTm9kZU9QQ1VBMIIBojANBgkqhkiG9w0BAQEFAAOCAY8AMIIBigKC
AYEAuYtXEehcXyrB6HfZaY+AAx9RHKJekUKdOFHgiqZvtFO9efs6N03IcBs4C0Ew
TLW2cN6vRxL6cNOpI3cp0j3cMPO3bjFztM3uWLgMwBOSptGKtDhD8CL1mh0Pf0VI
6cYfFAPakIe6HE0VIjyucUwLUzDLW29R0Yng8GRF/OMscXFYSIEbuJUHl6Y+osMS
CCzBy+TMUDD6SGqRv5keOLOumPD/lYvfzUpyd99wNXBttUpjI+k+JQIqALkgyOzr
dfmcFIwiXyvdR+OoSdc9sEl0wLbjGu1gI/EZW74Lh0oP6D504TgrXmsmx5nfBJxK
Ox+nPGIajwKuJFT+E8sWPpNlSF6rHOgtJqBXOFCS73w5ru3QKvn7LCwtLC3b/17V
0nJuSBol1MisVPJpIqFI6pv7Nm0PTtv6g0IAPAHFO/n8rkSWHureAzz75WoP/AnJ
IsfI8wO9Zg028DUcIc3oTmMfCkzzTBJlnwOj0HxOQQ1ipVfYapj9ShNZruOhmDwY
V0EHAgMBAAGgQjBABgkqhkiG9w0BCQ4xMzAxMAkGA1UdEwQCMAAwDgYDVR0PAQH/
BAQDAgEGMBQGA1UdEQQNMAuGCXVuZGVmaW5lZDANBgkqhkiG9w0BAQsFAAOCAYEA
owM36fHDv0XOAng++E7ZIcRruHi6gYu85wPzuZdXB62L8p9zd19EY2kiR426KSA/
B2vBeayMK5pldbByps2MdtV82QH8UGm/aNkR1AESMots97bLPVTzD8cfFNuPk12B
CgTjrHiifUbfnDYMhkh5ndTJUzxKCT+X2rpcBpDcbMcRG61FiGuXN2OK/6IuPnDh
Hs9Jhycb1AfPP5F54Q67drgpAixJVUOQXL4Ch/R+yxarrLCo0QJ8q6nNl2trNQ8A
AjM0sm5AXkraF8gVHutrKWvUxRo3rn00VwzY0TtvO4AqF3kn7oJK7Dtx2t3Z/3su
YyDAsJvacgYMHZHuEJVF3Clv3RUSbHFfskrJUpPLMcmqDLzD8sWm9wY3ZqxqX4gv
whhJt1ySakidfwN1h+R/8Dbi/W1a7kuy1WEyQ9ibxllA2JxovcHfEzUsHzALlu1u
g4dbtl7JLl6Y7XIJDSjA9nWDbsSOQJo3cHV5UF/UVBMLI/6oDkHkUAFUIXTFaeU8
-----END CERTIFICATE REQUEST-----
