Certificate Request:
    Data:
        Version: 0 (0x0)
        Subject: C=FR, O=NodeOPCUA, CN=NodeOPCUA
        Subject Public Key Info:
            Public Key Algorithm: rsaEncryption
                Public-Key: (2048 bit)
                Modulus:
                    00:cf:f3:bf:18:b1:82:4f:80:9a:3d:63:15:b7:bf:
                    cb:ed:5b:c0:d7:20:2c:e7:35:2d:bf:69:b3:ca:b5:
                    b5:aa:f0:68:05:f6:ee:a6:c6:8d:b6:e1:08:19:03:
                    4f:b2:16:88:fa:15:a4:ba:f0:21:5a:c5:b8:a1:7a:
                    9b:e5:9c:f9:bd:9a:8c:26:be:76:60:40:9b:c5:73:
                    88:5a:0d:45:08:57:3c:b9:cb:74:06:d5:e7:fd:30:
                    21:81:61:ed:96:36:f2:d0:b8:8b:03:a8:99:3f:d1:
                    bc:87:0f:a5:fc:6f:58:00:0b:22:4c:49:44:ab:8e:
                    60:59:b4:ee:fc:1a:a1:87:e0:b3:53:9a:c4:ae:ee:
                    58:b0:33:af:ce:fa:36:b7:28:9d:ea:12:44:5e:9c:
                    41:cb:45:82:ec:af:fc:ad:54:91:63:af:44:91:41:
                    ed:0b:69:2b:0a:fd:10:59:c9:85:87:c1:c3:04:e4:
                    28:92:73:f6:d0:82:7c:90:8b:90:8d:37:e7:0d:73:
                    13:d8:ff:23:bc:7c:cb:f4:73:01:53:6b:c0:13:fb:
                    ac:88:61:34:16:e6:17:46:bb:58:5d:8a:bd:3d:7b:
                    01:cc:2c:1b:f7:ba:1f:cc:42:92:67:cb:b8:e3:c7:
                    7e:62:dd:58:e4:e9:d9:90:42:11:fb:62:1f:fa:15:
                    d9:53
                Exponent: 65537 (0x10001)
        Attributes:
        Requested Extensions:
            X509v3 Basic Constraints: 
                CA:FALSE
            X509v3 Key Usage: critical
                Certificate Sign, CRL Sign
            X509v3 Subject Alternative Name: 
                URI:undefined
    Signature Algorithm: sha256WithRSAEncryption
         73:42:bf:da:69:4d:fe:62:e8:9f:10:7d:33:11:f2:6c:06:ba:
         e8:80:a4:4d:27:25:49:3c:a4:f4:36:fe:f2:2c:34:31:64:2b:
         44:de:4f:b8:23:26:bf:7d:6d:69:0f:b0:8d:b4:a3:80:2c:05:
         be:9a:95:e4:8a:e4:44:e4:1e:1f:48:23:50:3e:b7:70:86:f1:
         3c:2e:32:da:2f:68:a4:97:b9:7c:40:23:cd:e3:f4:6f:1b:c7:
         65:f3:e8:b3:b0:ad:ab:80:ad:55:e9:28:cc:cd:e7:db:0e:0f:
         c2:c1:95:6a:9d:13:e0:64:ec:0c:0b:d0:ff:e2:c7:ed:66:85:
         cd:99:2d:6b:19:79:dd:74:fd:34:db:cc:65:3f:50:6e:78:e5:
         c8:10:c2:a2:ac:b4:b7:08:6c:5b:39:1a:1b:2e:ff:d1:34:7c:
         52:79:1c:66:7b:39:46:9a:18:f2:b5:d2:4c:d6:4c:68:b6:fd:
         26:84:cb:f2:29:f2:e2:3e:0d:9c:16:d2:56:a3:f5:e3:c2:67:
         db:0a:e9:48:a2:5b:8e:0c:61:4b:17:48:1e:00:91:86:03:f9:
         68:91:49:9a:5c:0b:ee:45:9e:cd:b6:24:d4:0c:86:05:07:6e:
         a9:bf:07:8d:e0:1c:9c:9e:74:2e:fc:b1:ce:49:45:dc:75:c5:
         14:b2:39:d3
-----BEGIN CERTIFICATE REQUEST-----
MIICvDCCAaQCAQAwNTELMAkGA1UEBhMCRlIxEjAQBgNVBAoMCU5vZGVPUENVQTES
MBAGA1UEAwwJTm9kZU9QQ1VBMIIBIjANBgkqhkiG9w0BAQEFAAOCAQ8AMIIBCgKC
AQEAz/O/GLGCT4CaPWMVt7/L7VvA1yAs5zUtv2mzyrW1qvBoBfbupsaNtuEIGQNP
shaI+hWkuvAhWsW4oXqb5Zz5vZqMJr52YECbxXOIWg1FCFc8uct0BtXn/TAhgWHt
ljby0LiLA6iZP9G8hw+l/G9YAAsiTElEq45gWbTu/Bqhh+CzU5rEru5YsDOvzvo2
tyid6hJEXpxBy0WC7K/8rVSRY69EkUHtC2krCv0QWcmFh8HDBOQoknP20IJ8kIuQ
jTfnDXMT2P8jvHzL9HMBU2vAE/usiGE0FuYXRrtYXYq9PXsBzCwb97ofzEKSZ8u4
48d+Yt1Y5OnZkEIR+2If+hXZUwIDAQABoEIwQAYJKoZIhvcNAQkOMTMwMTAJBgNV
HRMEAjAAMA4GA1UdDwEB/wQEAwIBBjAUBgNVHREEDTALhgl1bmRlZmluZWQwDQYJ
KoZIhvcNAQELBQADggEBAHNCv9ppTf5i6J8QfTMR8mwGuuiApE0nJUk8pPQ2/vIs
NDFkK0TeT7gjJr99bWkPsI20o4AsBb6aleSK5ETkHh9II1A+t3CG8TwuMtovaKSX
uXxAI83j9G8bx2Xz6LOwrauArVXpKMzN59sOD8LBlWqdE+Bk7AwL0P/ix+1mhc2Z
LWsZed10/TTbzGU/UG545cgQwqKstLcIbFs5Ghsu/9E0fFJ5HGZ7OUaaGPK10kzW
TGi2/SaEy/Ip8uI+DZwW0laj9ePCZ9sK6UiiW44MYUsXSB4AkYYD+WiRSZpcC+5F
ns22JNQMhgUHbqm/B43gHJyedC78sc5JRdx1xRSyOdM=
-----END CERTIFICATE REQUEST-----
