Certificate Request:
    Data:
        Version: 0 (0x0)
        Subject: C=FR, O=NodeOPCUA, CN=NodeOPCUA
        Subject Public Key Info:
            Public Key Algorithm: rsaEncryption
                Public-Key: (1024 bit)
                Modulus:
                    00:bc:db:bf:99:77:9c:bd:a5:bc:d3:6f:7d:05:97:
                    8f:67:c5:a7:b3:2f:9e:86:a4:3b:b3:1b:bd:a0:44:
                    d1:37:63:20:c9:e6:4d:34:8a:32:82:94:7d:60:44:
                    8a:2f:b7:f9:be:0f:00:57:73:2c:35:90:b2:fb:89:
                    61:07:0f:5c:3c:fd:0d:05:f7:42:bb:92:26:65:9b:
                    f9:7c:ec:ce:5a:23:69:15:59:ff:68:b1:56:d8:d9:
                    99:75:fb:1d:33:86:2e:14:f5:41:20:7b:c5:57:26:
                    e8:c1:f3:cf:07:58:7b:cf:3e:55:47:ce:2d:c8:c5:
                    d4:b8:22:93:cb:60:ca:b2:ef
                Exponent: 65537 (0x10001)
        Attributes:
        Requested Extensions:
            X509v3 Basic Constraints: 
                CA:FALSE
            X509v3 Key Usage: critical
                Certificate Sign, CRL Sign
            X509v3 Subject Alternative Name: 
                URI:undefined
    Signature Algorithm: sha256WithRSAEncryption
         80:7f:b0:51:e8:06:75:8a:2a:4c:35:89:4f:e1:d1:0f:ac:f1:
         ea:cb:f5:1e:4f:d4:c8:80:9c:af:db:01:fc:37:55:fd:24:2b:
         48:30:4e:d1:1e:3a:b6:65:33:dd:81:7f:15:ba:9d:03:57:8c:
         0f:55:63:b6:89:f6:e9:31:bc:60:6f:50:50:93:aa:69:c1:71:
         39:90:7d:e4:b0:80:14:c1:20:46:d3:02:00:f0:f8:a2:85:63:
         fa:45:23:a3:56:b0:ed:9c:48:0a:55:7e:42:81:44:fb:00:c0:
         3f:34:de:7a:15:6c:d4:c3:70:61:58:97:c5:50:98:1e:05:49:
         fb:67
-----BEGIN CERTIFICATE REQUEST-----
MIIBtzCCASACAQAwNTELMAkGA1UEBhMCRlIxEjAQBgNVBAoMCU5vZGVPUENVQTES
MBAGA1UEAwwJTm9kZU9QQ1VBMIGfMA0GCSqGSIb3DQEBAQUAA4GNADCBiQKBgQC8
27+Zd5y9pbzTb30Fl49nxaezL56GpDuzG72gRNE3YyDJ5k00ijKClH1gRIovt/m+
DwBXcyw1kLL7iWEHD1w8/Q0F90K7kiZlm/l87M5aI2kVWf9osVbY2Zl1+x0zhi4U
9UEge8VXJujB888HWHvPPlVHzi3IxdS4IpPLYMqy7wIDAQABoEIwQAYJKoZIhvcN
AQkOMTMwMTAJBgNVHRMEAjAAMA4GA1UdDwEB/wQEAwIBBjAUBgNVHREEDTALhgl1
bmRlZmluZWQwDQYJKoZIhvcNAQELBQADgYEAgH+wUegGdYoqTDWJT+HRD6zx6sv1
Hk/UyICcr9sB/DdV/SQrSDBO0R46tmUz3YF/FbqdA1eMD1Vjton26TG8YG9QUJOq
acFxOZB95LCAFMEgRtMCAPD4ooVj+kUjo1aw7ZxIClV+QoFE+wDAPzTeehVs1MNw
YViXxVCYHgVJ+2c=
-----END CERTIFICATE REQUEST-----
