Certificate Request:
    Data:
        Version: 0 (0x0)
        Subject: C=FR, O=NodeOPCUA, CN=NodeOPCUA
        Subject Public Key Info:
            Public Key Algorithm: rsaEncryption
                Public-Key: (4096 bit)
                Modulus:
                    00:c9:13:c6:88:05:d9:60:39:58:ab:47:a3:9a:6b:
                    0c:80:bd:37:ef:cd:0d:59:60:fc:f7:6f:36:d3:38:
                    c0:ce:cb:6b:a0:47:17:5f:f8:11:d4:5a:ef:1b:a5:
                    f0:99:ed:3e:f6:be:30:97:ef:b5:fc:48:db:08:ca:
                    44:0c:ba:61:07:71:72:8e:74:d6:62:7a:dd:b8:35:
                    f0:c3:7d:2b:7a:5e:c7:01:9e:24:ac:13:a5:ad:85:
                    e8:eb:7a:c7:ff:48:52:59:cb:09:07:c2:ac:1b:4d:
                    7f:90:6d:33:e0:b5:e7:a9:5c:83:c4:cf:e6:92:8c:
                    9a:1b:e1:61:d6:0a:b4:8b:20:a8:df:23:9f:61:45:
                    9d:f8:7b:b7:13:b3:9f:1f:8d:18:c6:8c:e8:f6:5c:
                    27:c3:74:9e:ca:c2:70:20:df:ff:56:a8:6c:36:f1:
                    cd:09:ff:fb:da:fe:29:90:33:d2:8b:41:3e:2e:e6:
                    2c:ba:4d:3f:57:5b:c4:16:86:37:7e:e7:3b:19:19:
                    18:5c:b4:11:67:1b:17:da:87:44:a7:48:43:f7:14:
                    45:81:b7:74:1d:35:96:c5:c5:1c:bb:54:db:8f:e3:
                    eb:43:62:66:5c:66:95:f8:72:4e:2c:da:c0:6d:b1:
                    cb:55:a3:e6:8f:58:53:8e:41:6e:bc:e9:c2:fb:85:
                    98:ed:ee:58:27:b2:10:a6:2c:b0:42:4f:8d:4c:b6:
                    b0:21:59:68:ae:56:1e:c9:46:e1:97:fc:68:19:2a:
                    43:0d:0d:34:3a:d0:cc:3e:17:a8:5a:e9:4a:27:28:
                    ad:63:17:f3:e1:49:71:e6:1a:f7:87:7a:06:89:78:
                    c4:96:4a:3d:5e:e6:bc:ea:ae:f7:a9:05:db:96:39:
                    70:32:0e:88:a6:8e:ba:ec:34:fb:c9:c9:b0:6d:19:
                    b2:b1:56:c5:c3:82:5f:fd:9a:f9:f0:0f:37:95:b7:
                    1e:f0:ed:82:d3:1a:98:d7:8b:03:86:d3:b0:1f:f8:
                    af:b5:69:3e:2b:4a:1c:da:da:13:a1:b0:3f:d5:66:
                    78:1c:21:db:c4:e4:5c:8f:b6:f9:aa:ad:3a:45:05:
                    50:cb:91:c7:83:60:4a:55:ca:8f:1f:70:c9:14:05:
                    e2:b2:59:45:57:73:f3:73:c9:ef:5d:51:01:a1:f7:
                    73:e5:7b:ba:75:92:2f:ae:1b:77:c6:d8:20:84:c0:
                    24:e1:af:0e:79:d7:cb:ec:45:9c:c3:a1:4c:90:5d:
                    0e:7d:c4:25:8b:38:1c:0b:48:97:96:45:91:eb:e3:
                    05:68:54:54:74:b1:a7:0e:e6:d9:26:65:b2:5a:d6:
                    ab:32:22:86:28:d5:b6:b4:07:b4:02:7d:9b:39:6e:
                    de:23:61
                Exponent: 65537 (0x10001)
        Attributes:
        Requested Extensions:
            X509v3 Basic Constraints: 
                CA:FALSE
            X509v3 Key Usage: critical
                Certificate Sign, CRL Sign
            X509v3 Subject Alternative Name: 
                URI:undefined
    Signature Algorithm: sha256WithRSAEncryption
         56:89:07:87:a6:69:f9:33:2b:46:51:ed:70:60:1d:31:31:46:
         d4:29:12:ea:b8:e3:43:f0:f6:a1:3a:32:a0:35:e7:3e:98:39:
         ff:a8:eb:ad:cb:5f:f7:2a:3c:8f:7c:e5:b2:f0:2f:85:de:75:
         4e:37:55:81:5e:21:ff:b8:0f:ca:b1:f1:94:76:a4:a6:af:9f:
         a9:13:55:1e:13:a3:53:f5:73:9f:15:3b:84:03:c4:4a:07:34:
         95:ef:fd:97:7f:b5:7c:ad:0f:b4:49:7e:12:48:ab:c2:a2:70:
         d6:68:c0:77:77:37:9c:cd:82:50:e7:bf:84:21:c5:90:7a:ff:
         4d:7e:02:f9:1a:5c:2e:4e:1b:9b:85:fc:39:03:0d:91:a1:f0:
         16:4c:62:ff:5c:18:34:d9:31:dd:31:59:c2:a9:26:f5:56:47:
         5d:6b:38:fd:fc:8a:57:ee:78:45:0f:b8:14:d3:64:f0:1e:3c:
         77:c6:87:75:0a:ae:cb:1b:55:8a:d5:3c:e6:ce:1a:48:bc:57:
         92:ad:63:3e:06:cf:24:c7:e1:e7:02:46:7a:65:74:6b:3d:89:
         91:85:46:8f:93:10:ba:76:5f:67:e4:83:c0:e6:3e:3b:5a:83:
         90:2e:cd:e7:99:4b:64:94:00:b5:1e:e8:a3:d7:91:dd:0e:ed:
         1e:e9:f2:9f:77:ef:31:66:d4:86:11:3c:d6:b9:b8:53:92:02:
         86:81:9f:85:db:74:80:1d:4f:1f:73:3f:fa:17:ac:55:53:e8:
         52:4d:93:7f:ad:1d:2a:40:ba:b2:98:cf:f2:c4:9f:9b:bc:a8:
         a3:95:15:5c:46:20:b0:48:ed:1b:9b:eb:b5:c2:e1:75:3d:e9:
         a2:c5:7e:a7:dd:54:e6:66:ec:1d:f3:a2:32:c9:27:35:37:d8:
         7b:aa:1c:b1:67:61:5e:46:18:85:61:98:75:7e:e0:0c:45:06:
         65:ff:6f:f3:71:85:30:c8:42:55:a3:37:14:94:39:34:e7:8b:
         ff:d4:35:0d:13:15:99:f5:ee:29:2d:4c:57:41:ee:12:44:cd:
         ff:26:94:26:52:f5:49:0f:d3:7b:10:87:a5:36:60:cf:42:c6:
         39:02:d9:37:5f:1c:3c:07:36:56:c5:78:4c:b7:9f:61:11:95:
         16:ae:4c:65:ad:a4:e2:ef:6a:c4:1d:d7:c5:2a:71:54:fa:64:
         45:22:81:d9:61:cb:98:ee:f2:d2:22:dc:af:08:4c:9f:fa:21:
         64:f8:a1:10:ad:75:39:6a:f8:49:76:f6:d3:25:fd:0b:85:9b:
         46:50:3a:aa:5a:43:3a:46:01:77:b7:b8:e4:f0:8a:ea:8e:91:
         91:0f:02:60:25:ab:8a:65
-----BEGIN CERTIFICATE REQUEST-----
MIIEvDCCAqQCAQAwNTELMAkGA1UEBhMCRlIxEjAQBgNVBAoMCU5vZGVPUENVQTES
MBAGA1UEAwwJTm9kZU9QQ1VBMIICIjANBgkqhkiG9w0BAQEFAAOCAg8AMIICCgKC
AgEAyRPGiAXZYDlYq0ejmmsMgL03780NWWD892820zjAzstroEcXX/gR1FrvG6Xw
me0+9r4wl++1/EjbCMpEDLphB3FyjnTWYnrduDXww30rel7HAZ4krBOlrYXo63rH
/0hSWcsJB8KsG01/kG0z4LXnqVyDxM/mkoyaG+Fh1gq0iyCo3yOfYUWd+Hu3E7Of
H40Yxozo9lwnw3SeysJwIN//VqhsNvHNCf/72v4pkDPSi0E+LuYsuk0/V1vEFoY3
fuc7GRkYXLQRZxsX2odEp0hD9xRFgbd0HTWWxcUcu1Tbj+PrQ2JmXGaV+HJOLNrA
bbHLVaPmj1hTjkFuvOnC+4WY7e5YJ7IQpiywQk+NTLawIVlorlYeyUbhl/xoGSpD
DQ00OtDMPheoWulKJyitYxfz4Ulx5hr3h3oGiXjElko9Xua86q73qQXbljlwMg6I
po667DT7ycmwbRmysVbFw4Jf/Zr58A83lbce8O2C0xqY14sDhtOwH/ivtWk+K0oc
2toTobA/1WZ4HCHbxORcj7b5qq06RQVQy5HHg2BKVcqPH3DJFAXisllFV3Pzc8nv
XVEBofdz5Xu6dZIvrht3xtgghMAk4a8OedfL7EWcw6FMkF0OfcQlizgcC0iXlkWR
6+MFaFRUdLGnDubZJmWyWtarMiKGKNW2tAe0An2bOW7eI2ECAwEAAaBCMEAGCSqG
SIb3DQEJDjEzMDEwCQYDVR0TBAIwADAOBgNVHQ8BAf8EBAMCAQYwFAYDVR0RBA0w
C4YJdW5kZWZpbmVkMA0GCSqGSIb3DQEBCwUAA4ICAQBWiQeHpmn5MytGUe1wYB0x
MUbUKRLquOND8PahOjKgNec+mDn/qOuty1/3KjyPfOWy8C+F3nVON1WBXiH/uA/K
sfGUdqSmr5+pE1UeE6NT9XOfFTuEA8RKBzSV7/2Xf7V8rQ+0SX4SSKvConDWaMB3
dzeczYJQ57+EIcWQev9NfgL5GlwuThubhfw5Aw2RofAWTGL/XBg02THdMVnCqSb1
Vkddazj9/IpX7nhFD7gU02TwHjx3xod1Cq7LG1WK1TzmzhpIvFeSrWM+Bs8kx+Hn
AkZ6ZXRrPYmRhUaPkxC6dl9n5IPA5j47WoOQLs3nmUtklAC1Huij15HdDu0e6fKf
d+8xZtSGETzWubhTkgKGgZ+F23SAHU8fcz/6F6xVU+hSTZN/rR0qQLqymM/yxJ+b
vKijlRVcRiCwSO0bm+u1wuF1PemixX6n3VTmZuwd86IyySc1N9h7qhyxZ2FeRhiF
YZh1fuAMRQZl/2/zcYUwyEJVozcUlDk054v/1DUNExWZ9e4pLUxXQe4SRM3/JpQm
UvVJD9N7EIelNmDPQsY5Atk3Xxw8BzZWxXhMt59hEZUWrkxlraTi72rEHdfFKnFU
+mRFIoHZYcuY7vLSItyvCEyf+iFk+KEQrXU5avhJdvbTJf0LhZtGUDqqWkM6RgF3
t7jk8IrqjpGRDwJgJauKZQ==
-----END CERTIFICATE REQUEST-----
