Certificate:
    Data:
        Version: 3 (0x2)
        Serial Number: 4096 (0x1000)
    Signature Algorithm: sha256WithRSAEncryption
        Issuer: C=FR, ST=IDF, L=Paris, O=Local NODE-OPCUA Certificate Authority, CN=NodeOPCUA-CA
        Validity
            Not Before: May 15 13:59:47 2018 GMT
            Not After : May 15 13:59:47 2019 GMT
        Subject: C=FR, O=NodeOPCUA, CN=NodeOPCUA
        Subject Public Key Info:
            Public Key Algorithm: rsaEncryption
                Public-Key: (1024 bit)
                Modulus:
                    00:bc:db:bf:99:77:9c:bd:a5:bc:d3:6f:7d:05:97:
                    8f:67:c5:a7:b3:2f:9e:86:a4:3b:b3:1b:bd:a0:44:
                    d1:37:63:20:c9:e6:4d:34:8a:32:82:94:7d:60:44:
                    8a:2f:b7:f9:be:0f:00:57:73:2c:35:90:b2:fb:89:
                    61:07:0f:5c:3c:fd:0d:05:f7:42:bb:92:26:65:9b:
                    f9:7c:ec:ce:5a:23:69:15:59:ff:68:b1:56:d8:d9:
                    99:75:fb:1d:33:86:2e:14:f5:41:20:7b:c5:57:26:
                    e8:c1:f3:cf:07:58:7b:cf:3e:55:47:ce:2d:c8:c5:
                    d4:b8:22:93:cb:60:ca:b2:ef
                Exponent: 65537 (0x10001)
        X509v3 extensions:
            X509v3 Basic Constraints: critical
                CA:FALSE
            X509v3 Subject Key Identifier: 
                B6:90:9E:AB:5C:39:FC:27:1A:1A:61:5A:31:92:E9:9D:F3:13:35:33
            X509v3 Authority Key Identifier: 
                keyid:EF:64:4A:61:32:B7:3A:48:DF:68:ED:C7:34:4D:A2:53:DB:6A:49:07
                DirName:/C=FR/ST=IDF/L=Paris/O=Local NODE-OPCUA Certificate Authority/CN=NodeOPCUA-CA
                serial:C8:0D:72:93:8C:CC:B7:A5

            X509v3 Subject Alternative Name: 
                URI:urn:ROK:NodeOPCUA-Client, DNS:localhost, DNS:ROK
            Netscape Comment: 
                OpenSSL Generated Certificate
            X509v3 Key Usage: critical
                Digital Signature, Non Repudiation, Key Encipherment, Data Encipherment, Key Agreement, Certificate Sign
            X509v3 Extended Key Usage: critical
                TLS Web Server Authentication, TLS Web Client Authentication
    Signature Algorithm: sha256WithRSAEncryption
         7e:3e:73:4e:da:46:b9:64:46:8a:91:44:9d:c5:0f:b7:c6:cc:
         03:c7:b8:27:d4:dd:a3:d2:85:0d:d9:93:03:7d:9f:c2:a0:2f:
         55:2e:9a:ab:d9:17:46:b2:f4:c9:a5:44:16:e3:db:7a:29:8f:
         24:5a:a3:37:c5:44:32:c7:28:a2:5d:5d:f6:09:8a:cc:ab:dd:
         78:ef:21:6c:6f:fb:88:22:c6:b6:01:69:80:d8:8d:0a:bc:de:
         8d:e7:be:12:1a:e8:de:4f:04:72:2f:80:b5:4b:f1:85:54:d0:
         13:1c:ba:8e:24:32:7d:92:d7:ec:fd:fc:11:0e:95:04:1a:c9:
         9d:5b:47:f7:2a:bb:65:0a:c3:68:97:51:2d:a3:ae:71:03:bc:
         ce:ce:d2:42:85:e4:08:6a:71:52:0b:34:91:ea:9f:6a:1f:d7:
         77:ed:ee:cd:6f:ed:dc:8c:da:c9:92:3a:ff:5d:fa:2e:c5:81:
         ca:f7:58:c4:49:85:33:09:e9:d7:fd:38:32:2e:d1:85:62:3a:
         9a:28:6d:c6:3b:6b:12:8e:ec:0d:20:9e:c2:41:23:a3:24:81:
         0b:19:40:86:e6:16:ce:f6:d0:ab:2f:32:b6:e5:b8:9f:97:35:
         c9:7b:4d:0d:2d:86:ee:08:76:a8:96:75:c5:f3:e5:d3:2c:16:
         f1:8f:42:03
-----BEGIN CERTIFICATE-----
MIIEFDCCAvygAwIBAgICEAAwDQYJKoZIhvcNAQELBQAwczELMAkGA1UEBhMCRlIx
DDAKBgNVBAgTA0lERjEOMAwGA1UEBxMFUGFyaXMxLzAtBgNVBAoTJkxvY2FsIE5P
REUtT1BDVUEgQ2VydGlmaWNhdGUgQXV0aG9yaXR5MRUwEwYDVQQDEwxOb2RlT1BD
VUEtQ0EwIhgPMjAxODA1MTUxMzU5NDdaGA8yMDE5MDUxNTEzNTk0N1owNTELMAkG
A1UEBhMCRlIxEjAQBgNVBAoMCU5vZGVPUENVQTESMBAGA1UEAwwJTm9kZU9QQ1VB
MIGfMA0GCSqGSIb3DQEBAQUAA4GNADCBiQKBgQC827+Zd5y9pbzTb30Fl49nxaez
L56GpDuzG72gRNE3YyDJ5k00ijKClH1gRIovt/m+DwBXcyw1kLL7iWEHD1w8/Q0F
90K7kiZlm/l87M5aI2kVWf9osVbY2Zl1+x0zhi4U9UEge8VXJujB888HWHvPPlVH
zi3IxdS4IpPLYMqy7wIDAQABo4IBbjCCAWowDAYDVR0TAQH/BAIwADAdBgNVHQ4E
FgQUtpCeq1w5/CcaGmFaMZLpnfMTNTMwgaUGA1UdIwSBnTCBmoAU72RKYTK3Okjf
aO3HNE2iU9tqSQehd6R1MHMxCzAJBgNVBAYTAkZSMQwwCgYDVQQIEwNJREYxDjAM
BgNVBAcTBVBhcmlzMS8wLQYDVQQKEyZMb2NhbCBOT0RFLU9QQ1VBIENlcnRpZmlj
YXRlIEF1dGhvcml0eTEVMBMGA1UEAxMMTm9kZU9QQ1VBLUNBggkAyA1yk4zMt6Uw
MwYDVR0RBCwwKoYYdXJuOlJPSzpOb2RlT1BDVUEtQ2xpZW50gglsb2NhbGhvc3SC
A1JPSzAsBglghkgBhvhCAQ0EHxYdT3BlblNTTCBHZW5lcmF0ZWQgQ2VydGlmaWNh
dGUwDgYDVR0PAQH/BAQDAgL8MCAGA1UdJQEB/wQWMBQGCCsGAQUFBwMBBggrBgEF
BQcDAjANBgkqhkiG9w0BAQsFAAOCAQEAfj5zTtpGuWRGipFEncUPt8bMA8e4J9Td
o9KFDdmTA32fwqAvVS6aq9kXRrL0yaVEFuPbeimPJFqjN8VEMscool1d9gmKzKvd
eO8hbG/7iCLGtgFpgNiNCrzejee+Ehro3k8Eci+AtUvxhVTQExy6jiQyfZLX7P38
EQ6VBBrJnVtH9yq7ZQrDaJdRLaOucQO8zs7SQoXkCGpxUgs0keqfah/Xd+3uzW/t
3IzayZI6/136LsWByvdYxEmFMwnp1/04Mi7RhWI6mihtxjtrEo7sDSCewkEjoySB
CxlAhuYWzvbQqy8ytuW4n5c1yXtNDS2G7gh2qJZ1xfPl0ywW8Y9CAw==
-----END CERTIFICATE-----
-----BEGIN CERTIFICATE-----
MIIE3TCCA8WgAwIBAgIJAMgNcpOMzLelMA0GCSqGSIb3DQEBCwUAMHMxCzAJBgNV
BAYTAkZSMQwwCgYDVQQIEwNJREYxDjAMBgNVBAcTBVBhcmlzMS8wLQYDVQQKEyZM
b2NhbCBOT0RFLU9QQ1VBIENlcnRpZmljYXRlIEF1dGhvcml0eTEVMBMGA1UEAxMM
Tm9kZU9QQ1VBLUNBMB4XDTE4MDUxNjEzNTk0OVoXDTI4MDUxMzEzNTk0OVowczEL
MAkGA1UEBhMCRlIxDDAKBgNVBAgTA0lERjEOMAwGA1UEBxMFUGFyaXMxLzAtBgNV
BAoTJkxvY2FsIE5PREUtT1BDVUEgQ2VydGlmaWNhdGUgQXV0aG9yaXR5MRUwEwYD
VQQDEwxOb2RlT1BDVUEtQ0EwggEiMA0GCSqGSIb3DQEBAQUAA4IBDwAwggEKAoIB
AQDIYJd2w8gwNnGFEs7eQqrgnt4M3ruKFfahBF0srsQq6HNRelGnYeO99eUGt3Vy
p+ZZ1c1+ObnNRE/xcE0p8bhLKXWQTzz9HdtzThuVRXhEnEz1nJfaW98AMe9ALdha
ojSOmqA3KYZu3LJ57t405lFDHeZdWZfNX4b3GTbBYw91M7uc3iwgVa0ddb6Go8Nl
wdoCrRVB5cojd7ZMfYgEREzCqrSSh5ATkOAjRbmA+9Oz9isrmLEJGdmWbIWhvQ2/
1QPMyW7isPVf7nqiOERhTSVh4tjD6VMBnk2ROYmCqcY1tA/YN9wWs41xXP3V9QlT
zAzXxxdjP1ojqeaBZX2/wi2/AgMBAAGjggFyMIIBbjAdBgNVHQ4EFgQU72RKYTK3
OkjfaO3HNE2iU9tqSQcwgaUGA1UdIwSBnTCBmoAU72RKYTK3OkjfaO3HNE2iU9tq
SQehd6R1MHMxCzAJBgNVBAYTAkZSMQwwCgYDVQQIEwNJREYxDjAMBgNVBAcTBVBh
cmlzMS8wLQYDVQQKEyZMb2NhbCBOT0RFLU9QQ1VBIENlcnRpZmljYXRlIEF1dGhv
cml0eTEVMBMGA1UEAxMMTm9kZU9QQ1VBLUNBggkAyA1yk4zMt6UwDAYDVR0TBAUw
AwEB/zAOBgNVHQ8BAf8EBAMCAQYwVwYJYIZIAYb4QgENBEoWSENBIENlcnRpZmlj
YXRlIGdlbmVyYXRlZCBieSBOb2RlLU9QQ1VBIENlcnRpZmljYXRlIHV0aWxpdHkg
dXNpbmcgb3BlbnNzbDAuBgNVHR8EJzAlMCOgIaAfhh1odHRwOi8vbG9jYWxob3N0
Ojg5MDAvY3JsLnBlbTANBgkqhkiG9w0BAQsFAAOCAQEAiz9UPXxad5VxkTvkIJQU
mYjbyKUmSc4VDespEmzmyaARbmp5le4KxKjzkBFdutBDUBB+G9o9nc1biY6p5ZUG
MzV4FO4VqP2e65ZV60tNvBksGbX9gjuLRnMA20r6F+rFN1xs8SolnzdJ/VDOnQPg
yZBvufyMvcPqoJzdnhYhgmik/4SdEdC7aBAQA9VLm9jyI7v8MLX1WlAJmWCXmNL0
MM2iTWkn3uydTZkcC0IyD93upvYHG1flUZPjP4VuRU5+QIsZOGmE0NC3NBiw9kr2
zL3lRxGbPLmaoVbx60MsYoudb/FzkKW0qgAwozLImzJ7TdNDqr6opbi36xzVs0go
ZQ==
-----END CERTIFICATE-----
