Certificate:
    Data:
        Version: 3 (0x2)
        Serial Number: 4103 (0x1007)
    Signature Algorithm: sha256WithRSAEncryption
        Issuer: O=NodeOPCUA, CN=NodeOPCUA
        Validity
            Not Before: May 15 13:59:47 2018 GMT
            Not After : May 15 13:59:47 2019 GMT
        Subject: O=NodeOPCUA, CN=NodeOPCUA
        Subject Public Key Info:
            Public Key Algorithm: rsaEncryption
                Public-Key: (4096 bit)
                Modulus:
                    00:c9:13:c6:88:05:d9:60:39:58:ab:47:a3:9a:6b:
                    0c:80:bd:37:ef:cd:0d:59:60:fc:f7:6f:36:d3:38:
                    c0:ce:cb:6b:a0:47:17:5f:f8:11:d4:5a:ef:1b:a5:
                    f0:99:ed:3e:f6:be:30:97:ef:b5:fc:48:db:08:ca:
                    44:0c:ba:61:07:71:72:8e:74:d6:62:7a:dd:b8:35:
                    f0:c3:7d:2b:7a:5e:c7:01:9e:24:ac:13:a5:ad:85:
                    e8:eb:7a:c7:ff:48:52:59:cb:09:07:c2:ac:1b:4d:
                    7f:90:6d:33:e0:b5:e7:a9:5c:83:c4:cf:e6:92:8c:
                    9a:1b:e1:61:d6:0a:b4:8b:20:a8:df:23:9f:61:45:
                    9d:f8:7b:b7:13:b3:9f:1f:8d:18:c6:8c:e8:f6:5c:
                    27:c3:74:9e:ca:c2:70:20:df:ff:56:a8:6c:36:f1:
                    cd:09:ff:fb:da:fe:29:90:33:d2:8b:41:3e:2e:e6:
                    2c:ba:4d:3f:57:5b:c4:16:86:37:7e:e7:3b:19:19:
                    18:5c:b4:11:67:1b:17:da:87:44:a7:48:43:f7:14:
                    45:81:b7:74:1d:35:96:c5:c5:1c:bb:54:db:8f:e3:
                    eb:43:62:66:5c:66:95:f8:72:4e:2c:da:c0:6d:b1:
                    cb:55:a3:e6:8f:58:53:8e:41:6e:bc:e9:c2:fb:85:
                    98:ed:ee:58:27:b2:10:a6:2c:b0:42:4f:8d:4c:b6:
                    b0:21:59:68:ae:56:1e:c9:46:e1:97:fc:68:19:2a:
                    43:0d:0d:34:3a:d0:cc:3e:17:a8:5a:e9:4a:27:28:
                    ad:63:17:f3:e1:49:71:e6:1a:f7:87:7a:06:89:78:
                    c4:96:4a:3d:5e:e6:bc:ea:ae:f7:a9:05:db:96:39:
                    70:32:0e:88:a6:8e:ba:ec:34:fb:c9:c9:b0:6d:19:
                    b2:b1:56:c5:c3:82:5f:fd:9a:f9:f0:0f:37:95:b7:
                    1e:f0:ed:82:d3:1a:98:d7:8b:03:86:d3:b0:1f:f8:
                    af:b5:69:3e:2b:4a:1c:da:da:13:a1:b0:3f:d5:66:
                    78:1c:21:db:c4:e4:5c:8f:b6:f9:aa:ad:3a:45:05:
                    50:cb:91:c7:83:60:4a:55:ca:8f:1f:70:c9:14:05:
                    e2:b2:59:45:57:73:f3:73:c9:ef:5d:51:01:a1:f7:
                    73:e5:7b:ba:75:92:2f:ae:1b:77:c6:d8:20:84:c0:
                    24:e1:af:0e:79:d7:cb:ec:45:9c:c3:a1:4c:90:5d:
                    0e:7d:c4:25:8b:38:1c:0b:48:97:96:45:91:eb:e3:
                    05:68:54:54:74:b1:a7:0e:e6:d9:26:65:b2:5a:d6:
                    ab:32:22:86:28:d5:b6:b4:07:b4:02:7d:9b:39:6e:
                    de:23:61
                Exponent: 65537 (0x10001)
        X509v3 extensions:
            X509v3 Basic Constraints: critical
                CA:FALSE
            X509v3 Subject Key Identifier: 
                D7:C5:FB:BD:BF:6A:CE:B2:DE:77:05:FB:D7:BD:C0:07:B1:78:2E:E8
            X509v3 Authority Key Identifier: 
                keyid:D7:C5:FB:BD:BF:6A:CE:B2:DE:77:05:FB:D7:BD:C0:07:B1:78:2E:E8
                DirName:/O=NodeOPCUA/CN=NodeOPCUA
                serial:10:07

            X509v3 Subject Alternative Name: 
                URI:urn:ROK:NodeOPCUA-Client, DNS:localhost, DNS:ROK
            Netscape Comment: 
                OpenSSL Generated Certificate
            X509v3 Key Usage: critical
                Digital Signature, Non Repudiation, Key Encipherment, Data Encipherment, Key Agreement, Certificate Sign
            X509v3 Extended Key Usage: critical
                TLS Web Server Authentication, TLS Web Client Authentication
    Signature Algorithm: sha256WithRSAEncryption
         26:b8:ff:6b:da:20:86:ff:72:ee:a7:ea:46:5b:88:af:a6:2e:
         19:a4:fe:90:3b:cd:ac:00:02:a4:54:79:ed:03:cb:16:2c:55:
         2f:28:70:82:27:6e:01:07:fa:6c:8a:03:98:09:22:c7:e8:fe:
         47:8f:c1:ab:d3:a9:cf:40:99:79:74:d3:85:27:77:da:08:87:
         33:20:0f:49:99:a8:ac:6f:de:71:2c:65:52:51:d7:dd:4c:97:
         3f:a8:10:30:c8:1e:c7:e7:7f:71:74:50:22:25:27:e4:67:82:
         df:df:40:91:81:df:b7:af:d2:82:74:60:6b:6a:35:0f:50:6f:
         2f:18:d4:27:42:07:ea:95:12:21:a1:52:25:29:5d:75:ec:ed:
         6e:a4:76:6d:38:00:87:79:2f:07:61:e2:b6:18:0a:21:72:5d:
         6f:24:a8:9f:76:1c:f0:8b:90:27:12:bd:71:b8:02:eb:29:09:
         3f:9d:df:8c:98:f6:d9:8a:52:52:b5:bd:c1:68:a6:3e:6f:b2:
         14:f4:67:48:ca:b6:d5:79:07:02:ec:17:d8:94:31:e5:a9:ba:
         63:f0:ea:42:e2:0a:01:b4:f1:19:e8:93:6c:3a:d6:17:1a:10:
         77:c0:24:71:48:97:84:5c:6d:c1:83:e2:1b:3b:2f:d8:f1:25:
         ee:39:70:a0:82:0f:57:43:77:8e:d7:28:a4:48:44:fb:32:e3:
         0e:51:66:e8:a3:13:0c:81:44:1d:c1:9d:73:d1:46:18:52:fb:
         29:61:4c:5f:57:75:c5:aa:ab:f5:6f:ca:b3:36:c1:51:79:aa:
         09:19:59:e4:9e:ff:23:b3:ea:c7:5f:13:fe:c0:2c:a6:11:ca:
         ac:69:b1:fc:6b:79:e5:87:94:5a:42:69:60:6d:44:77:95:a5:
         a6:88:aa:e9:92:0b:28:93:ff:6c:7b:11:80:61:87:fa:dd:e4:
         41:03:67:a6:0b:91:94:ee:76:37:1e:61:a9:45:72:9f:24:60:
         aa:be:9e:d7:d7:e6:9f:96:f8:e5:83:6f:10:76:c1:b4:f2:ef:
         4b:29:6a:68:29:cd:56:ce:62:89:91:16:c2:b6:5a:cd:93:da:
         ba:58:cb:73:58:44:20:1d:b3:34:e7:6f:4a:83:04:9f:13:10:
         17:f3:55:33:c3:cf:df:9f:e4:59:74:da:f8:73:64:32:67:0f:
         e2:48:21:b1:71:4a:e0:8c:14:a8:dc:a1:18:61:56:a9:93:20:
         c2:2e:13:27:2a:5b:58:5f:de:9f:2a:07:6e:07:70:a8:63:ad:
         be:e0:82:ae:c2:3d:c0:ca:1e:ab:ce:13:5b:46:25:07:ae:96:
         95:fe:30:78:56:ae:ac:e1
-----BEGIN CERTIFICATE-----
MIIF6zCCA9OgAwIBAgICEAcwDQYJKoZIhvcNAQELBQAwKDESMBAGA1UEChMJTm9k
ZU9QQ1VBMRIwEAYDVQQDEwlOb2RlT1BDVUEwIhgPMjAxODA1MTUxMzU5NDdaGA8y
MDE5MDUxNTEzNTk0N1owKDESMBAGA1UEChMJTm9kZU9QQ1VBMRIwEAYDVQQDEwlO
b2RlT1BDVUEwggIiMA0GCSqGSIb3DQEBAQUAA4ICDwAwggIKAoICAQDJE8aIBdlg
OVirR6OaawyAvTfvzQ1ZYPz3bzbTOMDOy2ugRxdf+BHUWu8bpfCZ7T72vjCX77X8
SNsIykQMumEHcXKOdNZiet24NfDDfSt6XscBniSsE6Wthejresf/SFJZywkHwqwb
TX+QbTPgteepXIPEz+aSjJob4WHWCrSLIKjfI59hRZ34e7cTs58fjRjGjOj2XCfD
dJ7KwnAg3/9WqGw28c0J//va/imQM9KLQT4u5iy6TT9XW8QWhjd+5zsZGRhctBFn
Gxfah0SnSEP3FEWBt3QdNZbFxRy7VNuP4+tDYmZcZpX4ck4s2sBtsctVo+aPWFOO
QW686cL7hZjt7lgnshCmLLBCT41MtrAhWWiuVh7JRuGX/GgZKkMNDTQ60Mw+F6ha
6UonKK1jF/PhSXHmGveHegaJeMSWSj1e5rzqrvepBduWOXAyDoimjrrsNPvJybBt
GbKxVsXDgl/9mvnwDzeVtx7w7YLTGpjXiwOG07Af+K+1aT4rShza2hOhsD/VZngc
IdvE5FyPtvmqrTpFBVDLkceDYEpVyo8fcMkUBeKyWUVXc/Nzye9dUQGh93Ple7p1
ki+uG3fG2CCEwCThrw5518vsRZzDoUyQXQ59xCWLOBwLSJeWRZHr4wVoVFR0sacO
5tkmZbJa1qsyIoYo1ba0B7QCfZs5bt4jYQIDAQABo4IBGTCCARUwDAYDVR0TAQH/
BAIwADAdBgNVHQ4EFgQU18X7vb9qzrLedwX7173AB7F4LugwUQYDVR0jBEowSIAU
18X7vb9qzrLedwX7173AB7F4LuihLKQqMCgxEjAQBgNVBAoTCU5vZGVPUENVQTES
MBAGA1UEAxMJTm9kZU9QQ1VBggIQBzAzBgNVHREELDAqhhh1cm46Uk9LOk5vZGVP
UENVQS1DbGllbnSCCWxvY2FsaG9zdIIDUk9LMCwGCWCGSAGG+EIBDQQfFh1PcGVu
U1NMIEdlbmVyYXRlZCBDZXJ0aWZpY2F0ZTAOBgNVHQ8BAf8EBAMCAvwwIAYDVR0l
AQH/BBYwFAYIKwYBBQUHAwEGCCsGAQUFBwMCMA0GCSqGSIb3DQEBCwUAA4ICAQAm
uP9r2iCG/3Lup+pGW4ivpi4ZpP6QO82sAAKkVHntA8sWLFUvKHCCJ24BB/psigOY
CSLH6P5Hj8Gr06nPQJl5dNOFJ3faCIczIA9Jmaisb95xLGVSUdfdTJc/qBAwyB7H
539xdFAiJSfkZ4Lf30CRgd+3r9KCdGBrajUPUG8vGNQnQgfqlRIhoVIlKV117O1u
pHZtOACHeS8HYeK2GAohcl1vJKifdhzwi5AnEr1xuALrKQk/nd+MmPbZilJStb3B
aKY+b7IU9GdIyrbVeQcC7BfYlDHlqbpj8OpC4goBtPEZ6JNsOtYXGhB3wCRxSJeE
XG3Bg+IbOy/Y8SXuOXCggg9XQ3eO1yikSET7MuMOUWbooxMMgUQdwZ1z0UYYUvsp
YUxfV3XFqqv1b8qzNsFReaoJGVnknv8js+rHXxP+wCymEcqsabH8a3nlh5RaQmlg
bUR3laWmiKrpkgsok/9sexGAYYf63eRBA2emC5GU7nY3HmGpRXKfJGCqvp7X1+af
lvjlg28QdsG08u9LKWpoKc1WzmKJkRbCtlrNk9q6WMtzWEQgHbM0529KgwSfExAX
81Uzw8/fn+RZdNr4c2QyZw/iSCGxcUrgjBSo3KEYYVapkyDCLhMnKltYX96fKgdu
B3CoY62+4IKuwj3Ayh6rzhNbRiUHrpaV/jB4Vq6s4Q==
-----END CERTIFICATE-----
