Certificate Request:
    Data:
        Version: 0 (0x0)
        Subject: C=FR, O=NodeOPCUA, CN=NodeOPCUA
        Subject Public Key Info:
            Public Key Algorithm: rsaEncryption
                Public-Key: (4096 bit)
                Modulus:
                    00:c1:d0:5a:13:08:10:0f:d1:f7:9d:36:65:8d:1f:
                    76:b2:2b:59:12:6f:7a:63:6f:b6:c7:7a:0a:ec:80:
                    33:30:4b:c9:28:c6:24:61:11:a4:18:08:cd:6e:94:
                    03:42:c2:17:8e:ed:90:a2:b4:33:f0:78:e9:40:62:
                    59:1f:3c:46:bb:3f:7b:c0:22:98:21:10:3b:7d:b8:
                    63:3e:e8:63:72:52:5b:37:20:b9:a3:9b:ae:02:bc:
                    7a:e0:a6:97:1b:ac:a8:f5:1b:35:e3:28:8c:a2:09:
                    73:6e:2e:a0:ee:82:11:f2:65:24:c2:22:8a:45:cd:
                    0a:16:ec:d6:b9:4d:a1:e5:8b:8a:c8:a2:7b:9e:3e:
                    b1:74:3c:4a:0f:49:e8:db:57:a5:5d:60:5a:e4:a5:
                    ed:cd:f9:85:05:ca:39:43:5d:f9:bd:09:36:24:64:
                    9e:6d:df:55:f6:f5:a0:1a:55:c6:41:44:d5:e1:bd:
                    bb:51:9f:a2:8d:cf:a5:0d:4d:87:2e:15:78:89:04:
                    bf:08:5a:87:6c:94:00:1b:ab:6b:ce:9c:41:aa:b9:
                    4a:8b:df:e0:91:24:14:2f:64:22:00:04:d1:c1:c4:
                    33:b7:a2:86:08:09:dd:7b:28:17:23:04:01:b5:8f:
                    59:e4:26:63:2e:c0:95:e1:44:09:0a:a5:1d:ba:88:
                    83:03:5f:70:24:29:fc:c8:1f:d8:7e:27:3d:99:f9:
                    02:b4:74:11:c5:88:82:98:4d:c9:ca:4b:37:52:d6:
                    25:48:d7:b7:09:74:0f:d4:bd:a1:a6:71:c0:bb:45:
                    ce:b9:74:d6:80:32:6b:2e:cf:8d:3c:f8:f4:14:11:
                    b1:3a:f1:6e:e5:9f:19:21:c0:d9:a1:50:40:a8:30:
                    1c:3c:88:c8:08:0b:e9:cc:d7:6f:eb:4f:5a:da:20:
                    02:cc:60:91:d6:97:b3:07:26:19:ab:bd:c6:7e:aa:
                    4f:ef:13:da:18:ea:6c:83:ac:0c:3c:4e:7a:f4:ac:
                    47:53:7c:46:7d:f9:f7:7f:82:fa:cc:00:63:de:5d:
                    44:c8:15:9d:05:60:36:f9:9e:99:e0:a6:14:a1:45:
                    10:57:38:c0:4d:eb:b6:fa:3c:d9:e1:17:16:e8:8d:
                    90:61:c1:91:72:92:7f:a9:55:06:e4:f6:e0:db:63:
                    b1:42:51:38:be:d0:f1:a2:48:c0:f1:21:c2:e9:93:
                    b2:eb:53:63:76:e7:90:58:cc:ed:9c:e9:25:8a:53:
                    12:93:5f:c2:6c:f9:e1:f5:2a:75:eb:dd:36:58:16:
                    94:3b:51:a6:ac:a7:ed:89:21:d4:8b:50:40:12:7b:
                    fe:01:4a:af:72:1e:6a:cc:c0:4f:7f:6f:7e:bd:5d:
                    b0:d8:f7
                Exponent: 65537 (0x10001)
        Attributes:
        Requested Extensions:
            X509v3 Basic Constraints: 
                CA:FALSE
            X509v3 Key Usage: critical
                Certificate Sign, CRL Sign
            X509v3 Subject Alternative Name: 
                URI:undefined
    Signature Algorithm: sha256WithRSAEncryption
         6e:de:38:67:d8:0f:a9:55:8d:06:16:64:21:98:bd:d2:36:92:
         ec:ae:9d:c6:57:a1:bb:4d:ef:9e:d6:49:50:8b:16:87:14:45:
         43:e2:9a:da:0b:c7:89:80:18:69:28:53:65:ad:62:64:6e:62:
         99:25:11:db:d1:93:14:9e:09:29:78:58:08:df:93:22:8a:b6:
         d7:85:97:23:e7:5b:13:ac:96:90:94:4b:bc:da:63:bd:41:c1:
         8a:d4:06:db:54:9f:b5:12:0b:02:37:ec:5a:29:4b:6b:c8:e8:
         dc:6d:87:e9:3a:c4:94:8b:93:14:df:0d:e0:16:68:f5:dc:32:
         22:04:2e:ab:a0:3e:2a:05:e6:fe:9b:0a:ae:2e:06:ae:f3:5e:
         c6:6f:76:c4:a5:44:f0:c9:35:50:6c:b4:9a:d8:9f:c0:92:9c:
         66:a0:43:b7:c2:0d:e3:89:7f:06:9e:da:4a:da:4c:37:8e:cb:
         6a:78:1b:25:14:1d:16:b5:69:9f:a2:37:31:a1:3f:d3:1e:0f:
         18:2b:e1:31:d2:6e:12:ab:5f:76:7e:ed:f8:38:b6:23:28:dd:
         64:e7:52:3b:40:44:92:b4:97:80:db:07:66:51:a2:dd:6f:e8:
         29:6c:9a:18:54:06:cd:e7:5d:d8:39:da:7d:5d:04:db:65:71:
         cf:f6:a1:1f:68:38:21:e7:31:5c:d9:78:35:a8:f5:0b:e6:aa:
         72:74:06:4c:96:49:95:d1:ba:d1:84:09:6f:2e:4e:f7:74:5c:
         1b:61:ee:bc:c5:57:a0:7c:3f:08:4a:b3:e4:19:2d:3b:7f:a1:
         45:39:95:1c:b2:02:b4:b3:23:48:20:a2:5c:74:09:5a:df:d0:
         14:63:23:06:d1:7d:80:71:6e:a5:0c:d8:b9:98:3b:07:d8:67:
         51:fa:74:6e:7a:70:fc:01:c2:31:d9:3b:b7:c1:45:9f:34:4f:
         66:3e:ad:52:31:2b:a3:22:dc:56:93:a0:be:71:20:0b:79:40:
         40:ba:b1:ae:f5:f4:be:07:a6:5f:00:98:d5:80:c1:14:33:4b:
         36:31:33:b9:8a:a7:de:ff:39:f8:0e:1b:41:ac:6a:52:e7:dc:
         b1:f7:c5:3f:ac:f6:b7:53:be:68:5a:e9:a8:c1:00:d9:10:03:
         e6:c5:34:49:02:d0:8f:eb:10:42:e8:b4:d9:4a:5d:aa:7d:a3:
         08:a8:11:f0:6c:63:62:fa:9a:48:c2:d3:bc:b0:77:a0:70:4e:
         77:e6:01:b1:a7:71:46:8e:a0:2f:52:ae:86:77:dd:19:5e:1e:
         3c:71:75:d5:ab:97:5f:b5:bd:c6:3d:11:ab:02:04:09:05:de:
         62:d6:77:27:27:9b:be:45
-----BEGIN CERTIFICATE REQUEST-----
MIIEvDCCAqQCAQAwNTELMAkGA1UEBhMCRlIxEjAQBgNVBAoMCU5vZGVPUENVQTES
MBAGA1UEAwwJTm9kZU9QQ1VBMIICIjANBgkqhkiG9w0BAQEFAAOCAg8AMIICCgKC
AgEAwdBaEwgQD9H3nTZljR92sitZEm96Y2+2x3oK7IAzMEvJKMYkYRGkGAjNbpQD
QsIXju2QorQz8HjpQGJZHzxGuz97wCKYIRA7fbhjPuhjclJbNyC5o5uuArx64KaX
G6yo9Rs14yiMoglzbi6g7oIR8mUkwiKKRc0KFuzWuU2h5YuKyKJ7nj6xdDxKD0no
21elXWBa5KXtzfmFBco5Q135vQk2JGSebd9V9vWgGlXGQUTV4b27UZ+ijc+lDU2H
LhV4iQS/CFqHbJQAG6trzpxBqrlKi9/gkSQUL2QiAATRwcQzt6KGCAndeygXIwQB
tY9Z5CZjLsCV4UQJCqUduoiDA19wJCn8yB/Yfic9mfkCtHQRxYiCmE3Jyks3UtYl
SNe3CXQP1L2hpnHAu0XOuXTWgDJrLs+NPPj0FBGxOvFu5Z8ZIcDZoVBAqDAcPIjI
CAvpzNdv609a2iACzGCR1pezByYZq73GfqpP7xPaGOpsg6wMPE569KxHU3xGffn3
f4L6zABj3l1EyBWdBWA2+Z6Z4KYUoUUQVzjATeu2+jzZ4RcW6I2QYcGRcpJ/qVUG
5Pbg22OxQlE4vtDxokjA8SHC6ZOy61NjdueQWMztnOklilMSk1/CbPnh9Sp16902
WBaUO1GmrKftiSHUi1BAEnv+AUqvch5qzMBPf29+vV2w2PcCAwEAAaBCMEAGCSqG
SIb3DQEJDjEzMDEwCQYDVR0TBAIwADAOBgNVHQ8BAf8EBAMCAQYwFAYDVR0RBA0w
C4YJdW5kZWZpbmVkMA0GCSqGSIb3DQEBCwUAA4ICAQBu3jhn2A+pVY0GFmQhmL3S
NpLsrp3GV6G7Te+e1klQixaHFEVD4praC8eJgBhpKFNlrWJkbmKZJRHb0ZMUngkp
eFgI35MiirbXhZcj51sTrJaQlEu82mO9QcGK1AbbVJ+1EgsCN+xaKUtryOjcbYfp
OsSUi5MU3w3gFmj13DIiBC6roD4qBeb+mwquLgau817Gb3bEpUTwyTVQbLSa2J/A
kpxmoEO3wg3jiX8GntpK2kw3jstqeBslFB0WtWmfojcxoT/THg8YK+Ex0m4Sq192
fu34OLYjKN1k51I7QESStJeA2wdmUaLdb+gpbJoYVAbN513YOdp9XQTbZXHP9qEf
aDgh5zFc2Xg1qPUL5qpydAZMlkmV0brRhAlvLk73dFwbYe68xVegfD8ISrPkGS07
f6FFOZUcsgK0syNIIKJcdAla39AUYyMG0X2AcW6lDNi5mDsH2GdR+nRuenD8AcIx
2Tu3wUWfNE9mPq1SMSujItxWk6C+cSALeUBAurGu9fS+B6ZfAJjVgMEUM0s2MTO5
iqfe/zn4DhtBrGpS59yx98U/rPa3U75oWumowQDZEAPmxTRJAtCP6xBC6LTZSl2q
faMIqBHwbGNi+ppIwtO8sHegcE535gGxp3FGjqAvUq6Gd90ZXh48cXXVq5dftb3G
PRGrAgQJBd5i1ncnJ5u+RQ==
-----END CERTIFICATE REQUEST-----
