Certificate:
    Data:
        Version: 3 (0x2)
        Serial Number: 4118 (0x1016)
    Signature Algorithm: sha256WithRSAEncryption
        Issuer: C=FR, ST=IDF, L=Paris, O=Local NODE-OPCUA Certificate Authority, CN=NodeOPCUA-CA
        Validity
            Not Before: May 15 13:59:47 2018 GMT
            Not After : May 15 13:59:47 2019 GMT
        Subject: C=FR, O=NodeOPCUA, CN=NodeOPCUA
        Subject Public Key Info:
            Public Key Algorithm: rsaEncryption
                Public-Key: (4096 bit)
                Modulus:
                    00:c1:d0:5a:13:08:10:0f:d1:f7:9d:36:65:8d:1f:
                    76:b2:2b:59:12:6f:7a:63:6f:b6:c7:7a:0a:ec:80:
                    33:30:4b:c9:28:c6:24:61:11:a4:18:08:cd:6e:94:
                    03:42:c2:17:8e:ed:90:a2:b4:33:f0:78:e9:40:62:
                    59:1f:3c:46:bb:3f:7b:c0:22:98:21:10:3b:7d:b8:
                    63:3e:e8:63:72:52:5b:37:20:b9:a3:9b:ae:02:bc:
                    7a:e0:a6:97:1b:ac:a8:f5:1b:35:e3:28:8c:a2:09:
                    73:6e:2e:a0:ee:82:11:f2:65:24:c2:22:8a:45:cd:
                    0a:16:ec:d6:b9:4d:a1:e5:8b:8a:c8:a2:7b:9e:3e:
                    b1:74:3c:4a:0f:49:e8:db:57:a5:5d:60:5a:e4:a5:
                    ed:cd:f9:85:05:ca:39:43:5d:f9:bd:09:36:24:64:
                    9e:6d:df:55:f6:f5:a0:1a:55:c6:41:44:d5:e1:bd:
                    bb:51:9f:a2:8d:cf:a5:0d:4d:87:2e:15:78:89:04:
                    bf:08:5a:87:6c:94:00:1b:ab:6b:ce:9c:41:aa:b9:
                    4a:8b:df:e0:91:24:14:2f:64:22:00:04:d1:c1:c4:
                    33:b7:a2:86:08:09:dd:7b:28:17:23:04:01:b5:8f:
                    59:e4:26:63:2e:c0:95:e1:44:09:0a:a5:1d:ba:88:
                    83:03:5f:70:24:29:fc:c8:1f:d8:7e:27:3d:99:f9:
                    02:b4:74:11:c5:88:82:98:4d:c9:ca:4b:37:52:d6:
                    25:48:d7:b7:09:74:0f:d4:bd:a1:a6:71:c0:bb:45:
                    ce:b9:74:d6:80:32:6b:2e:cf:8d:3c:f8:f4:14:11:
                    b1:3a:f1:6e:e5:9f:19:21:c0:d9:a1:50:40:a8:30:
                    1c:3c:88:c8:08:0b:e9:cc:d7:6f:eb:4f:5a:da:20:
                    02:cc:60:91:d6:97:b3:07:26:19:ab:bd:c6:7e:aa:
                    4f:ef:13:da:18:ea:6c:83:ac:0c:3c:4e:7a:f4:ac:
                    47:53:7c:46:7d:f9:f7:7f:82:fa:cc:00:63:de:5d:
                    44:c8:15:9d:05:60:36:f9:9e:99:e0:a6:14:a1:45:
                    10:57:38:c0:4d:eb:b6:fa:3c:d9:e1:17:16:e8:8d:
                    90:61:c1:91:72:92:7f:a9:55:06:e4:f6:e0:db:63:
                    b1:42:51:38:be:d0:f1:a2:48:c0:f1:21:c2:e9:93:
                    b2:eb:53:63:76:e7:90:58:cc:ed:9c:e9:25:8a:53:
                    12:93:5f:c2:6c:f9:e1:f5:2a:75:eb:dd:36:58:16:
                    94:3b:51:a6:ac:a7:ed:89:21:d4:8b:50:40:12:7b:
                    fe:01:4a:af:72:1e:6a:cc:c0:4f:7f:6f:7e:bd:5d:
                    b0:d8:f7
                Exponent: 65537 (0x10001)
        X509v3 extensions:
            X509v3 Basic Constraints: critical
                CA:FALSE
            X509v3 Subject Key Identifier: 
                F3:31:57:CB:EA:9D:42:0D:30:9C:6E:25:0C:F6:61:7A:D7:97:B9:EB
            X509v3 Authority Key Identifier: 
                keyid:EF:64:4A:61:32:B7:3A:48:DF:68:ED:C7:34:4D:A2:53:DB:6A:49:07
                DirName:/C=FR/ST=IDF/L=Paris/O=Local NODE-OPCUA Certificate Authority/CN=NodeOPCUA-CA
                serial:C8:0D:72:93:8C:CC:B7:A5

            X509v3 Subject Alternative Name: 
                URI:urn:ROK:NodeOPCUA-DiscoveryServer, DNS:localhost, DNS:ROK
            Netscape Comment: 
                OpenSSL Generated Certificate
            X509v3 Key Usage: critical
                Digital Signature, Non Repudiation, Key Encipherment, Data Encipherment, Key Agreement, Certificate Sign
            X509v3 Extended Key Usage: critical
                TLS Web Server Authentication, TLS Web Client Authentication
    Signature Algorithm: sha256WithRSAEncryption
         3f:e5:d3:e6:fb:2d:9e:5d:c7:6f:b1:4b:21:b8:39:22:7a:97:
         b0:a7:b5:75:af:ed:27:b4:90:4c:63:75:ac:f3:6b:49:e7:c3:
         92:26:b1:f1:f4:a4:65:6b:d7:24:fc:f9:8d:49:65:8b:20:00:
         4c:a0:8a:f6:97:a7:80:d0:4d:df:e3:cd:aa:5d:b0:a6:51:a3:
         15:a6:9d:1d:50:33:51:91:4c:b7:65:51:50:2b:e2:10:b2:c9:
         30:86:b3:4f:10:cb:58:4d:6d:51:e7:b3:a1:d2:6a:66:9d:e1:
         6e:7e:1b:5b:91:b7:0a:41:5f:eb:d6:cf:54:50:4d:fd:fd:40:
         bc:ec:13:b8:a6:33:ea:d2:75:77:da:0b:f4:c8:d1:19:ce:73:
         42:04:5b:bd:90:56:c6:af:84:d0:cb:c9:39:08:b4:f1:7f:f1:
         2a:ca:89:6d:99:6d:05:77:32:4f:f5:a4:a9:97:23:64:b0:7a:
         05:00:14:7c:90:62:04:a2:2b:34:89:0c:38:c1:31:29:cd:3e:
         b3:cc:3f:04:61:d0:8a:c1:d9:66:41:44:2d:20:52:39:e2:53:
         32:58:61:80:05:4b:3c:b2:68:00:a2:ff:bb:c3:02:6f:2b:43:
         06:36:62:12:20:71:e2:e8:b8:41:4f:4f:e0:0b:5d:37:03:5a:
         1f:98:d9:3c
-----BEGIN CERTIFICATE-----
MIIFoTCCBImgAwIBAgICEBYwDQYJKoZIhvcNAQELBQAwczELMAkGA1UEBhMCRlIx
DDAKBgNVBAgTA0lERjEOMAwGA1UEBxMFUGFyaXMxLzAtBgNVBAoTJkxvY2FsIE5P
REUtT1BDVUEgQ2VydGlmaWNhdGUgQXV0aG9yaXR5MRUwEwYDVQQDEwxOb2RlT1BD
VUEtQ0EwIhgPMjAxODA1MTUxMzU5NDdaGA8yMDE5MDUxNTEzNTk0N1owNTELMAkG
A1UEBhMCRlIxEjAQBgNVBAoMCU5vZGVPUENVQTESMBAGA1UEAwwJTm9kZU9QQ1VB
MIICIjANBgkqhkiG9w0BAQEFAAOCAg8AMIICCgKCAgEAwdBaEwgQD9H3nTZljR92
sitZEm96Y2+2x3oK7IAzMEvJKMYkYRGkGAjNbpQDQsIXju2QorQz8HjpQGJZHzxG
uz97wCKYIRA7fbhjPuhjclJbNyC5o5uuArx64KaXG6yo9Rs14yiMoglzbi6g7oIR
8mUkwiKKRc0KFuzWuU2h5YuKyKJ7nj6xdDxKD0no21elXWBa5KXtzfmFBco5Q135
vQk2JGSebd9V9vWgGlXGQUTV4b27UZ+ijc+lDU2HLhV4iQS/CFqHbJQAG6trzpxB
qrlKi9/gkSQUL2QiAATRwcQzt6KGCAndeygXIwQBtY9Z5CZjLsCV4UQJCqUduoiD
A19wJCn8yB/Yfic9mfkCtHQRxYiCmE3Jyks3UtYlSNe3CXQP1L2hpnHAu0XOuXTW
gDJrLs+NPPj0FBGxOvFu5Z8ZIcDZoVBAqDAcPIjICAvpzNdv609a2iACzGCR1pez
ByYZq73GfqpP7xPaGOpsg6wMPE569KxHU3xGffn3f4L6zABj3l1EyBWdBWA2+Z6Z
4KYUoUUQVzjATeu2+jzZ4RcW6I2QYcGRcpJ/qVUG5Pbg22OxQlE4vtDxokjA8SHC
6ZOy61NjdueQWMztnOklilMSk1/CbPnh9Sp16902WBaUO1GmrKftiSHUi1BAEnv+
AUqvch5qzMBPf29+vV2w2PcCAwEAAaOCAXcwggFzMAwGA1UdEwEB/wQCMAAwHQYD
VR0OBBYEFPMxV8vqnUINMJxuJQz2YXrXl7nrMIGlBgNVHSMEgZ0wgZqAFO9kSmEy
tzpI32jtxzRNolPbakkHoXekdTBzMQswCQYDVQQGEwJGUjEMMAoGA1UECBMDSURG
MQ4wDAYDVQQHEwVQYXJpczEvMC0GA1UEChMmTG9jYWwgTk9ERS1PUENVQSBDZXJ0
aWZpY2F0ZSBBdXRob3JpdHkxFTATBgNVBAMTDE5vZGVPUENVQS1DQYIJAMgNcpOM
zLelMDwGA1UdEQQ1MDOGIXVybjpST0s6Tm9kZU9QQ1VBLURpc2NvdmVyeVNlcnZl
coIJbG9jYWxob3N0ggNST0swLAYJYIZIAYb4QgENBB8WHU9wZW5TU0wgR2VuZXJh
dGVkIENlcnRpZmljYXRlMA4GA1UdDwEB/wQEAwIC/DAgBgNVHSUBAf8EFjAUBggr
BgEFBQcDAQYIKwYBBQUHAwIwDQYJKoZIhvcNAQELBQADggEBAD/l0+b7LZ5dx2+x
SyG4OSJ6l7CntXWv7Se0kExjdazza0nnw5ImsfH0pGVr1yT8+Y1JZYsgAEygivaX
p4DQTd/jzapdsKZRoxWmnR1QM1GRTLdlUVAr4hCyyTCGs08Qy1hNbVHns6HSamad
4W5+G1uRtwpBX+vWz1RQTf39QLzsE7imM+rSdXfaC/TI0RnOc0IEW72QVsavhNDL
yTkItPF/8SrKiW2ZbQV3Mk/1pKmXI2SwegUAFHyQYgSiKzSJDDjBMSnNPrPMPwRh
0IrB2WZBRC0gUjniUzJYYYAFSzyyaACi/7vDAm8rQwY2YhIgceLouEFPT+ALXTcD
Wh+Y2Tw=
-----END CERTIFICATE-----
-----BEGIN CERTIFICATE-----
MIIE3TCCA8WgAwIBAgIJAMgNcpOMzLelMA0GCSqGSIb3DQEBCwUAMHMxCzAJBgNV
BAYTAkZSMQwwCgYDVQQIEwNJREYxDjAMBgNVBAcTBVBhcmlzMS8wLQYDVQQKEyZM
b2NhbCBOT0RFLU9QQ1VBIENlcnRpZmljYXRlIEF1dGhvcml0eTEVMBMGA1UEAxMM
Tm9kZU9QQ1VBLUNBMB4XDTE4MDUxNjEzNTk0OVoXDTI4MDUxMzEzNTk0OVowczEL
MAkGA1UEBhMCRlIxDDAKBgNVBAgTA0lERjEOMAwGA1UEBxMFUGFyaXMxLzAtBgNV
BAoTJkxvY2FsIE5PREUtT1BDVUEgQ2VydGlmaWNhdGUgQXV0aG9yaXR5MRUwEwYD
VQQDEwxOb2RlT1BDVUEtQ0EwggEiMA0GCSqGSIb3DQEBAQUAA4IBDwAwggEKAoIB
AQDIYJd2w8gwNnGFEs7eQqrgnt4M3ruKFfahBF0srsQq6HNRelGnYeO99eUGt3Vy
p+ZZ1c1+ObnNRE/xcE0p8bhLKXWQTzz9HdtzThuVRXhEnEz1nJfaW98AMe9ALdha
ojSOmqA3KYZu3LJ57t405lFDHeZdWZfNX4b3GTbBYw91M7uc3iwgVa0ddb6Go8Nl
wdoCrRVB5cojd7ZMfYgEREzCqrSSh5ATkOAjRbmA+9Oz9isrmLEJGdmWbIWhvQ2/
1QPMyW7isPVf7nqiOERhTSVh4tjD6VMBnk2ROYmCqcY1tA/YN9wWs41xXP3V9QlT
zAzXxxdjP1ojqeaBZX2/wi2/AgMBAAGjggFyMIIBbjAdBgNVHQ4EFgQU72RKYTK3
OkjfaO3HNE2iU9tqSQcwgaUGA1UdIwSBnTCBmoAU72RKYTK3OkjfaO3HNE2iU9tq
SQehd6R1MHMxCzAJBgNVBAYTAkZSMQwwCgYDVQQIEwNJREYxDjAMBgNVBAcTBVBh
cmlzMS8wLQYDVQQKEyZMb2NhbCBOT0RFLU9QQ1VBIENlcnRpZmljYXRlIEF1dGhv
cml0eTEVMBMGA1UEAxMMTm9kZU9QQ1VBLUNBggkAyA1yk4zMt6UwDAYDVR0TBAUw
AwEB/zAOBgNVHQ8BAf8EBAMCAQYwVwYJYIZIAYb4QgENBEoWSENBIENlcnRpZmlj
YXRlIGdlbmVyYXRlZCBieSBOb2RlLU9QQ1VBIENlcnRpZmljYXRlIHV0aWxpdHkg
dXNpbmcgb3BlbnNzbDAuBgNVHR8EJzAlMCOgIaAfhh1odHRwOi8vbG9jYWxob3N0
Ojg5MDAvY3JsLnBlbTANBgkqhkiG9w0BAQsFAAOCAQEAiz9UPXxad5VxkTvkIJQU
mYjbyKUmSc4VDespEmzmyaARbmp5le4KxKjzkBFdutBDUBB+G9o9nc1biY6p5ZUG
MzV4FO4VqP2e65ZV60tNvBksGbX9gjuLRnMA20r6F+rFN1xs8SolnzdJ/VDOnQPg
yZBvufyMvcPqoJzdnhYhgmik/4SdEdC7aBAQA9VLm9jyI7v8MLX1WlAJmWCXmNL0
MM2iTWkn3uydTZkcC0IyD93upvYHG1flUZPjP4VuRU5+QIsZOGmE0NC3NBiw9kr2
zL3lRxGbPLmaoVbx60MsYoudb/FzkKW0qgAwozLImzJ7TdNDqr6opbi36xzVs0go
ZQ==
-----END CERTIFICATE-----
