Certificate:
    Data:
        Version: 3 (0x2)
        Serial Number: 4113 (0x1011)
    Signature Algorithm: sha256WithRSAEncryption
        Issuer: O=NodeOPCUA, CN=NodeOPCUA
        Validity
            Not Before: May 15 13:59:47 2018 GMT
            Not After : May 15 13:59:47 2019 GMT
        Subject: O=NodeOPCUA, CN=NodeOPCUA
        Subject Public Key Info:
            Public Key Algorithm: rsaEncryption
                Public-Key: (1024 bit)
                Modulus:
                    00:bb:9f:94:53:85:cb:5c:ed:00:52:fe:71:79:22:
                    2d:7c:1f:cb:23:a8:c7:48:b5:f1:f9:82:ca:16:fd:
                    e3:d5:22:f4:2a:d3:93:3c:c0:5c:8a:60:2d:b8:e0:
                    48:37:c0:7b:b3:31:9e:7c:9f:41:28:01:6e:04:fc:
                    e1:8f:9c:6d:a3:ed:3e:2b:ab:1f:96:c7:16:d2:b9:
                    b7:6f:b2:cf:d4:cb:5b:63:ed:ae:32:14:88:74:3d:
                    02:e2:b4:ed:92:86:6c:70:b0:9a:b3:66:00:c2:17:
                    e5:4c:0d:e3:e3:10:9a:d8:d8:4f:fd:d5:41:0f:f6:
                    5c:45:92:be:c5:10:94:b2:bf
                Exponent: 65537 (0x10001)
        X509v3 extensions:
            X509v3 Basic Constraints: critical
                CA:FALSE
            X509v3 Subject Key Identifier: 
                BE:FD:74:49:90:16:12:19:93:14:AC:21:21:62:95:68:1C:94:57:E1
            X509v3 Authority Key Identifier: 
                keyid:BE:FD:74:49:90:16:12:19:93:14:AC:21:21:62:95:68:1C:94:57:E1
                DirName:/O=NodeOPCUA/CN=NodeOPCUA
                serial:10:11

            X509v3 Subject Alternative Name: 
                URI:urn:ROK:NodeOPCUA-DiscoveryServer, DNS:localhost, DNS:ROK
            Netscape Comment: 
                OpenSSL Generated Certificate
            X509v3 Key Usage: critical
                Digital Signature, Non Repudiation, Key Encipherment, Data Encipherment, Key Agreement, Certificate Sign
            X509v3 Extended Key Usage: critical
                TLS Web Server Authentication, TLS Web Client Authentication
    Signature Algorithm: sha256WithRSAEncryption
         6b:e4:35:f7:11:48:19:de:80:5a:a2:14:b1:16:d6:28:34:01:
         84:19:41:e1:49:46:8b:5f:72:ca:23:a4:98:c1:9b:0b:fe:09:
         64:e9:7c:73:40:ce:5f:92:80:c6:63:eb:fc:62:0c:c2:85:b7:
         b4:70:95:1b:0e:dc:a7:23:24:b4:62:b1:0c:bd:9d:7c:9d:3c:
         8a:3e:8e:6a:bf:d1:4f:7e:36:d5:4a:aa:54:dd:7e:2a:11:67:
         89:bf:54:8f:a3:32:1b:c2:16:c6:5c:f6:66:b3:76:2a:71:b3:
         39:d5:f7:23:9b:1c:c1:4c:26:87:30:3b:0c:ab:a2:89:22:61:
         38:5b
-----BEGIN CERTIFICATE-----
MIIC7zCCAligAwIBAgICEBEwDQYJKoZIhvcNAQELBQAwKDESMBAGA1UEChMJTm9k
ZU9QQ1VBMRIwEAYDVQQDEwlOb2RlT1BDVUEwIhgPMjAxODA1MTUxMzU5NDdaGA8y
MDE5MDUxNTEzNTk0N1owKDESMBAGA1UEChMJTm9kZU9QQ1VBMRIwEAYDVQQDEwlO
b2RlT1BDVUEwgZ8wDQYJKoZIhvcNAQEBBQADgY0AMIGJAoGBALuflFOFy1ztAFL+
cXkiLXwfyyOox0i18fmCyhb949Ui9CrTkzzAXIpgLbjgSDfAe7MxnnyfQSgBbgT8
4Y+cbaPtPiurH5bHFtK5t2+yz9TLW2PtrjIUiHQ9AuK07ZKGbHCwmrNmAMIX5UwN
4+MQmtjYT/3VQQ/2XEWSvsUQlLK/AgMBAAGjggEiMIIBHjAMBgNVHRMBAf8EAjAA
MB0GA1UdDgQWBBS+/XRJkBYSGZMUrCEhYpVoHJRX4TBRBgNVHSMESjBIgBS+/XRJ
kBYSGZMUrCEhYpVoHJRX4aEspCowKDESMBAGA1UEChMJTm9kZU9QQ1VBMRIwEAYD
VQQDEwlOb2RlT1BDVUGCAhARMDwGA1UdEQQ1MDOGIXVybjpST0s6Tm9kZU9QQ1VB
LURpc2NvdmVyeVNlcnZlcoIJbG9jYWxob3N0ggNST0swLAYJYIZIAYb4QgENBB8W
HU9wZW5TU0wgR2VuZXJhdGVkIENlcnRpZmljYXRlMA4GA1UdDwEB/wQEAwIC/DAg
BgNVHSUBAf8EFjAUBggrBgEFBQcDAQYIKwYBBQUHAwIwDQYJKoZIhvcNAQELBQAD
gYEAa+Q19xFIGd6AWqIUsRbWKDQBhBlB4UlGi19yyiOkmMGbC/4JZOl8c0DOX5KA
xmPr/GIMwoW3tHCVGw7cpyMktGKxDL2dfJ08ij6Oar/RT3421UqqVN1+KhFnib9U
j6MyG8IWxlz2ZrN2KnGzOdX3I5scwUwmhzA7DKuiiSJhOFs=
-----END CERTIFICATE-----
