Certificate:
    Data:
        Version: 3 (0x2)
        Serial Number: 4114 (0x1012)
    Signature Algorithm: sha256WithRSAEncryption
        Issuer: C=FR, ST=IDF, L=Paris, O=Local NODE-OPCUA Certificate Authority, CN=NodeOPCUA-CA
        Validity
            Not Before: May 15 13:59:47 2018 GMT
            Not After : May 15 13:59:47 2019 GMT
        Subject: C=FR, O=NodeOPCUA, CN=NodeOPCUA
        Subject Public Key Info:
            Public Key Algorithm: rsaEncryption
                Public-Key: (2048 bit)
                Modulus:
                    00:bf:d8:7e:a0:06:8f:ce:b6:90:7e:c0:a0:96:92:
                    99:dc:1c:3d:8b:6c:97:21:2a:c9:9d:41:e3:61:37:
                    f8:6b:c4:44:e4:9b:d0:3c:1d:7e:ce:3b:8a:6b:f3:
                    78:1b:6e:57:a6:36:6e:e4:fe:66:c4:db:05:9a:54:
                    27:5e:25:56:0c:48:a1:3a:da:74:56:46:26:d7:1a:
                    e5:0e:b6:cd:15:14:98:fa:da:a3:02:a3:0b:de:97:
                    3c:8d:8e:91:ab:0e:5a:0f:92:7b:e4:82:51:bd:bb:
                    9c:5d:6a:13:86:41:58:70:6e:96:e9:ef:65:aa:1b:
                    94:b3:a6:ed:2d:30:53:93:40:cf:8b:fc:bf:58:f9:
                    1b:1d:0d:2e:e6:22:6b:5d:d6:0c:9e:28:b7:1f:cc:
                    a5:24:47:d1:3d:f3:21:96:fd:a4:fd:4f:6f:b7:a9:
                    9d:c4:a2:21:fd:eb:15:d8:5c:4b:94:39:92:9c:24:
                    b5:1d:7c:dd:e2:dc:ba:57:f6:b4:f2:f6:84:aa:d6:
                    93:95:99:02:d9:d1:26:a6:f3:c0:5a:66:17:93:94:
                    43:50:ab:15:7f:41:49:2b:83:eb:1d:ee:cb:b6:e3:
                    50:4b:ef:f4:15:43:f9:00:7c:9e:c1:ce:60:d5:7b:
                    e4:bc:6f:25:15:49:e2:aa:9f:ec:46:a0:6a:13:63:
                    10:c5
                Exponent: 65537 (0x10001)
        X509v3 extensions:
            X509v3 Basic Constraints: critical
                CA:FALSE
            X509v3 Subject Key Identifier: 
                24:F7:F8:84:F5:0B:D7:F3:E7:5C:0D:27:EC:55:84:5F:26:20:4D:B2
            X509v3 Authority Key Identifier: 
                keyid:EF:64:4A:61:32:B7:3A:48:DF:68:ED:C7:34:4D:A2:53:DB:6A:49:07
                DirName:/C=FR/ST=IDF/L=Paris/O=Local NODE-OPCUA Certificate Authority/CN=NodeOPCUA-CA
                serial:C8:0D:72:93:8C:CC:B7:A5

            X509v3 Subject Alternative Name: 
                URI:urn:ROK:NodeOPCUA-DiscoveryServer, DNS:localhost, DNS:ROK
            Netscape Comment: 
                OpenSSL Generated Certificate
            X509v3 Key Usage: critical
                Digital Signature, Non Repudiation, Key Encipherment, Data Encipherment, Key Agreement, Certificate Sign
            X509v3 Extended Key Usage: critical
                TLS Web Server Authentication, TLS Web Client Authentication
    Signature Algorithm: sha256WithRSAEncryption
         03:43:05:70:23:fe:11:b6:4b:b8:30:db:dd:c0:15:4d:4f:19:
         93:c2:95:04:c9:47:b4:73:6e:cf:27:40:eb:3b:88:c4:2c:29:
         4a:cc:25:48:fc:4f:81:4f:c8:b9:e6:f6:0d:9c:0e:7f:d1:c0:
         57:6b:1d:bd:39:03:b5:5d:09:f2:f7:20:dc:56:8c:ab:1a:cc:
         5c:60:c8:b4:33:a5:97:c8:0f:c3:55:dd:d1:8f:b1:d2:fb:4e:
         88:9c:8c:31:30:0c:4a:8e:7e:32:dc:99:dd:64:3a:c3:53:2b:
         56:93:90:7b:78:64:41:c3:a8:c4:54:58:b0:92:30:49:ca:51:
         b2:28:aa:9a:c7:de:b3:0c:4f:b7:f3:1c:e5:3d:c0:60:20:86:
         f1:52:27:53:65:3e:42:5f:d3:cc:c4:eb:fe:4a:cb:4e:39:3f:
         a4:14:b0:4f:c8:a3:15:73:ee:4c:03:24:2a:77:18:0e:c2:29:
         35:a0:18:ef:e5:95:7d:56:b3:d5:99:0a:00:a8:e0:dc:74:05:
         94:a4:ee:29:5a:fd:95:04:38:39:b9:8f:2d:fe:31:9c:12:93:
         16:cf:8a:b5:33:f5:ba:51:41:a8:43:59:e9:fa:22:f7:f5:97:
         3b:96:51:32:66:8c:4d:a7:1b:45:48:b8:d5:3d:71:75:46:cd:
         ef:5e:cb:00
-----BEGIN CERTIFICATE-----
MIIEoTCCA4mgAwIBAgICEBIwDQYJKoZIhvcNAQELBQAwczELMAkGA1UEBhMCRlIx
DDAKBgNVBAgTA0lERjEOMAwGA1UEBxMFUGFyaXMxLzAtBgNVBAoTJkxvY2FsIE5P
REUtT1BDVUEgQ2VydGlmaWNhdGUgQXV0aG9yaXR5MRUwEwYDVQQDEwxOb2RlT1BD
VUEtQ0EwIhgPMjAxODA1MTUxMzU5NDdaGA8yMDE5MDUxNTEzNTk0N1owNTELMAkG
A1UEBhMCRlIxEjAQBgNVBAoMCU5vZGVPUENVQTESMBAGA1UEAwwJTm9kZU9QQ1VB
MIIBIjANBgkqhkiG9w0BAQEFAAOCAQ8AMIIBCgKCAQEAv9h+oAaPzraQfsCglpKZ
3Bw9i2yXISrJnUHjYTf4a8RE5JvQPB1+zjuKa/N4G25XpjZu5P5mxNsFmlQnXiVW
DEihOtp0VkYm1xrlDrbNFRSY+tqjAqML3pc8jY6Rqw5aD5J75IJRvbucXWoThkFY
cG6W6e9lqhuUs6btLTBTk0DPi/y/WPkbHQ0u5iJrXdYMnii3H8ylJEfRPfMhlv2k
/U9vt6mdxKIh/esV2FxLlDmSnCS1HXzd4ty6V/a08vaEqtaTlZkC2dEmpvPAWmYX
k5RDUKsVf0FJK4PrHe7LtuNQS+/0FUP5AHyewc5g1XvkvG8lFUniqp/sRqBqE2MQ
xQIDAQABo4IBdzCCAXMwDAYDVR0TAQH/BAIwADAdBgNVHQ4EFgQUJPf4hPUL1/Pn
XA0n7FWEXyYgTbIwgaUGA1UdIwSBnTCBmoAU72RKYTK3OkjfaO3HNE2iU9tqSQeh
d6R1MHMxCzAJBgNVBAYTAkZSMQwwCgYDVQQIEwNJREYxDjAMBgNVBAcTBVBhcmlz
MS8wLQYDVQQKEyZMb2NhbCBOT0RFLU9QQ1VBIENlcnRpZmljYXRlIEF1dGhvcml0
eTEVMBMGA1UEAxMMTm9kZU9QQ1VBLUNBggkAyA1yk4zMt6UwPAYDVR0RBDUwM4Yh
dXJuOlJPSzpOb2RlT1BDVUEtRGlzY292ZXJ5U2VydmVygglsb2NhbGhvc3SCA1JP
SzAsBglghkgBhvhCAQ0EHxYdT3BlblNTTCBHZW5lcmF0ZWQgQ2VydGlmaWNhdGUw
DgYDVR0PAQH/BAQDAgL8MCAGA1UdJQEB/wQWMBQGCCsGAQUFBwMBBggrBgEFBQcD
AjANBgkqhkiG9w0BAQsFAAOCAQEAA0MFcCP+EbZLuDDb3cAVTU8Zk8KVBMlHtHNu
zydA6zuIxCwpSswlSPxPgU/Iueb2DZwOf9HAV2sdvTkDtV0J8vcg3FaMqxrMXGDI
tDOll8gPw1Xd0Y+x0vtOiJyMMTAMSo5+MtyZ3WQ6w1MrVpOQe3hkQcOoxFRYsJIw
ScpRsiiqmsfeswxPt/Mc5T3AYCCG8VInU2U+Ql/TzMTr/krLTjk/pBSwT8ijFXPu
TAMkKncYDsIpNaAY7+WVfVaz1ZkKAKjg3HQFlKTuKVr9lQQ4ObmPLf4xnBKTFs+K
tTP1ulFBqENZ6foi9/WXO5ZRMmaMTacbRUi41T1xdUbN717LAA==
-----END CERTIFICATE-----
-----BEGIN CERTIFICATE-----
MIIE3TCCA8WgAwIBAgIJAMgNcpOMzLelMA0GCSqGSIb3DQEBCwUAMHMxCzAJBgNV
BAYTAkZSMQwwCgYDVQQIEwNJREYxDjAMBgNVBAcTBVBhcmlzMS8wLQYDVQQKEyZM
b2NhbCBOT0RFLU9QQ1VBIENlcnRpZmljYXRlIEF1dGhvcml0eTEVMBMGA1UEAxMM
Tm9kZU9QQ1VBLUNBMB4XDTE4MDUxNjEzNTk0OVoXDTI4MDUxMzEzNTk0OVowczEL
MAkGA1UEBhMCRlIxDDAKBgNVBAgTA0lERjEOMAwGA1UEBxMFUGFyaXMxLzAtBgNV
BAoTJkxvY2FsIE5PREUtT1BDVUEgQ2VydGlmaWNhdGUgQXV0aG9yaXR5MRUwEwYD
VQQDEwxOb2RlT1BDVUEtQ0EwggEiMA0GCSqGSIb3DQEBAQUAA4IBDwAwggEKAoIB
AQDIYJd2w8gwNnGFEs7eQqrgnt4M3ruKFfahBF0srsQq6HNRelGnYeO99eUGt3Vy
p+ZZ1c1+ObnNRE/xcE0p8bhLKXWQTzz9HdtzThuVRXhEnEz1nJfaW98AMe9ALdha
ojSOmqA3KYZu3LJ57t405lFDHeZdWZfNX4b3GTbBYw91M7uc3iwgVa0ddb6Go8Nl
wdoCrRVB5cojd7ZMfYgEREzCqrSSh5ATkOAjRbmA+9Oz9isrmLEJGdmWbIWhvQ2/
1QPMyW7isPVf7nqiOERhTSVh4tjD6VMBnk2ROYmCqcY1tA/YN9wWs41xXP3V9QlT
zAzXxxdjP1ojqeaBZX2/wi2/AgMBAAGjggFyMIIBbjAdBgNVHQ4EFgQU72RKYTK3
OkjfaO3HNE2iU9tqSQcwgaUGA1UdIwSBnTCBmoAU72RKYTK3OkjfaO3HNE2iU9tq
SQehd6R1MHMxCzAJBgNVBAYTAkZSMQwwCgYDVQQIEwNJREYxDjAMBgNVBAcTBVBh
cmlzMS8wLQYDVQQKEyZMb2NhbCBOT0RFLU9QQ1VBIENlcnRpZmljYXRlIEF1dGhv
cml0eTEVMBMGA1UEAxMMTm9kZU9QQ1VBLUNBggkAyA1yk4zMt6UwDAYDVR0TBAUw
AwEB/zAOBgNVHQ8BAf8EBAMCAQYwVwYJYIZIAYb4QgENBEoWSENBIENlcnRpZmlj
YXRlIGdlbmVyYXRlZCBieSBOb2RlLU9QQ1VBIENlcnRpZmljYXRlIHV0aWxpdHkg
dXNpbmcgb3BlbnNzbDAuBgNVHR8EJzAlMCOgIaAfhh1odHRwOi8vbG9jYWxob3N0
Ojg5MDAvY3JsLnBlbTANBgkqhkiG9w0BAQsFAAOCAQEAiz9UPXxad5VxkTvkIJQU
mYjbyKUmSc4VDespEmzmyaARbmp5le4KxKjzkBFdutBDUBB+G9o9nc1biY6p5ZUG
MzV4FO4VqP2e65ZV60tNvBksGbX9gjuLRnMA20r6F+rFN1xs8SolnzdJ/VDOnQPg
yZBvufyMvcPqoJzdnhYhgmik/4SdEdC7aBAQA9VLm9jyI7v8MLX1WlAJmWCXmNL0
MM2iTWkn3uydTZkcC0IyD93upvYHG1flUZPjP4VuRU5+QIsZOGmE0NC3NBiw9kr2
zL3lRxGbPLmaoVbx60MsYoudb/FzkKW0qgAwozLImzJ7TdNDqr6opbi36xzVs0go
ZQ==
-----END CERTIFICATE-----
