Certificate:
    Data:
        Version: 3 (0x2)
        Serial Number: 4115 (0x1013)
    Signature Algorithm: sha256WithRSAEncryption
        Issuer: O=NodeOPCUA, CN=NodeOPCUA
        Validity
            Not Before: May 15 13:59:47 2018 GMT
            Not After : May 15 13:59:47 2019 GMT
        Subject: O=NodeOPCUA, CN=NodeOPCUA
        Subject Public Key Info:
            Public Key Algorithm: rsaEncryption
                Public-Key: (2048 bit)
                Modulus:
                    00:bf:d8:7e:a0:06:8f:ce:b6:90:7e:c0:a0:96:92:
                    99:dc:1c:3d:8b:6c:97:21:2a:c9:9d:41:e3:61:37:
                    f8:6b:c4:44:e4:9b:d0:3c:1d:7e:ce:3b:8a:6b:f3:
                    78:1b:6e:57:a6:36:6e:e4:fe:66:c4:db:05:9a:54:
                    27:5e:25:56:0c:48:a1:3a:da:74:56:46:26:d7:1a:
                    e5:0e:b6:cd:15:14:98:fa:da:a3:02:a3:0b:de:97:
                    3c:8d:8e:91:ab:0e:5a:0f:92:7b:e4:82:51:bd:bb:
                    9c:5d:6a:13:86:41:58:70:6e:96:e9:ef:65:aa:1b:
                    94:b3:a6:ed:2d:30:53:93:40:cf:8b:fc:bf:58:f9:
                    1b:1d:0d:2e:e6:22:6b:5d:d6:0c:9e:28:b7:1f:cc:
                    a5:24:47:d1:3d:f3:21:96:fd:a4:fd:4f:6f:b7:a9:
                    9d:c4:a2:21:fd:eb:15:d8:5c:4b:94:39:92:9c:24:
                    b5:1d:7c:dd:e2:dc:ba:57:f6:b4:f2:f6:84:aa:d6:
                    93:95:99:02:d9:d1:26:a6:f3:c0:5a:66:17:93:94:
                    43:50:ab:15:7f:41:49:2b:83:eb:1d:ee:cb:b6:e3:
                    50:4b:ef:f4:15:43:f9:00:7c:9e:c1:ce:60:d5:7b:
                    e4:bc:6f:25:15:49:e2:aa:9f:ec:46:a0:6a:13:63:
                    10:c5
                Exponent: 65537 (0x10001)
        X509v3 extensions:
            X509v3 Basic Constraints: critical
                CA:FALSE
            X509v3 Subject Key Identifier: 
                24:F7:F8:84:F5:0B:D7:F3:E7:5C:0D:27:EC:55:84:5F:26:20:4D:B2
            X509v3 Authority Key Identifier: 
                keyid:24:F7:F8:84:F5:0B:D7:F3:E7:5C:0D:27:EC:55:84:5F:26:20:4D:B2
                DirName:/O=NodeOPCUA/CN=NodeOPCUA
                serial:10:13

            X509v3 Subject Alternative Name: 
                URI:urn:ROK:NodeOPCUA-DiscoveryServer, DNS:localhost, DNS:ROK
            Netscape Comment: 
                OpenSSL Generated Certificate
            X509v3 Key Usage: critical
                Digital Signature, Non Repudiation, Key Encipherment, Data Encipherment, Key Agreement, Certificate Sign
            X509v3 Extended Key Usage: critical
                TLS Web Server Authentication, TLS Web Client Authentication
    Signature Algorithm: sha256WithRSAEncryption
         88:52:b5:18:5c:1e:09:0e:ce:2b:68:c2:f7:61:f1:3b:31:e2:
         0d:84:e3:75:ef:79:c4:1d:5b:d8:f8:90:83:d0:5e:8d:e8:9b:
         eb:81:d4:d9:b2:19:df:f3:16:ba:3e:00:b8:58:b9:51:3b:d0:
         d8:5d:86:a8:77:e3:e9:1a:92:85:7c:6a:f6:06:ea:16:66:d3:
         ea:e7:d5:c2:ed:42:97:67:4e:70:d4:aa:ec:e0:8f:50:f1:ba:
         17:09:98:e9:89:f0:53:9a:7a:8e:11:3d:ec:a3:26:8d:9f:c5:
         f4:64:ae:af:61:16:ef:74:74:a5:cd:06:6b:ff:3e:06:b4:61:
         19:29:78:e8:2c:7c:ab:d9:8a:61:32:7e:d6:0c:46:21:73:af:
         44:0a:09:e0:50:a1:4a:30:ab:db:53:23:3b:b0:63:45:90:c0:
         45:a7:7e:22:fa:eb:32:4e:6f:a9:e9:07:95:a0:68:90:97:32:
         5e:50:82:4c:bf:97:1b:84:69:ff:a0:83:51:37:d0:d1:94:81:
         9f:69:55:9d:0f:c6:2c:d6:fc:75:0a:78:be:33:42:98:b3:75:
         0b:87:64:14:2d:43:fa:36:5d:27:b7:fd:77:02:a6:39:16:62:
         b2:51:1d:f6:19:07:80:ac:ec:61:36:fb:b4:7e:68:d5:50:72:
         66:2d:d5:ec
-----BEGIN CERTIFICATE-----
MIID9DCCAtygAwIBAgICEBMwDQYJKoZIhvcNAQELBQAwKDESMBAGA1UEChMJTm9k
ZU9QQ1VBMRIwEAYDVQQDEwlOb2RlT1BDVUEwIhgPMjAxODA1MTUxMzU5NDdaGA8y
MDE5MDUxNTEzNTk0N1owKDESMBAGA1UEChMJTm9kZU9QQ1VBMRIwEAYDVQQDEwlO
b2RlT1BDVUEwggEiMA0GCSqGSIb3DQEBAQUAA4IBDwAwggEKAoIBAQC/2H6gBo/O
tpB+wKCWkpncHD2LbJchKsmdQeNhN/hrxETkm9A8HX7OO4pr83gbblemNm7k/mbE
2wWaVCdeJVYMSKE62nRWRibXGuUOts0VFJj62qMCowvelzyNjpGrDloPknvkglG9
u5xdahOGQVhwbpbp72WqG5Szpu0tMFOTQM+L/L9Y+RsdDS7mImtd1gyeKLcfzKUk
R9E98yGW/aT9T2+3qZ3EoiH96xXYXEuUOZKcJLUdfN3i3LpX9rTy9oSq1pOVmQLZ
0Sam88BaZheTlENQqxV/QUkrg+sd7su241BL7/QVQ/kAfJ7BzmDVe+S8byUVSeKq
n+xGoGoTYxDFAgMBAAGjggEiMIIBHjAMBgNVHRMBAf8EAjAAMB0GA1UdDgQWBBQk
9/iE9QvX8+dcDSfsVYRfJiBNsjBRBgNVHSMESjBIgBQk9/iE9QvX8+dcDSfsVYRf
JiBNsqEspCowKDESMBAGA1UEChMJTm9kZU9QQ1VBMRIwEAYDVQQDEwlOb2RlT1BD
VUGCAhATMDwGA1UdEQQ1MDOGIXVybjpST0s6Tm9kZU9QQ1VBLURpc2NvdmVyeVNl
cnZlcoIJbG9jYWxob3N0ggNST0swLAYJYIZIAYb4QgENBB8WHU9wZW5TU0wgR2Vu
ZXJhdGVkIENlcnRpZmljYXRlMA4GA1UdDwEB/wQEAwIC/DAgBgNVHSUBAf8EFjAU
BggrBgEFBQcDAQYIKwYBBQUHAwIwDQYJKoZIhvcNAQELBQADggEBAIhStRhcHgkO
zitowvdh8Tsx4g2E43XvecQdW9j4kIPQXo3om+uB1NmyGd/zFro+ALhYuVE70Nhd
hqh34+kakoV8avYG6hZm0+rn1cLtQpdnTnDUquzgj1DxuhcJmOmJ8FOaeo4RPeyj
Jo2fxfRkrq9hFu90dKXNBmv/Pga0YRkpeOgsfKvZimEyftYMRiFzr0QKCeBQoUow
q9tTIzuwY0WQwEWnfiL66zJOb6npB5WgaJCXMl5Qgky/lxuEaf+gg1E30NGUgZ9p
VZ0PxizW/HUKeL4zQpizdQuHZBQtQ/o2XSe3/XcCpjkWYrJRHfYZB4Cs7GE2+7R+
aNVQcmYt1ew=
-----END CERTIFICATE-----
