Certificate:
    Data:
        Version: 3 (0x2)
        Serial Number: 4117 (0x1015)
    Signature Algorithm: sha256WithRSAEncryption
        Issuer: O=NodeOPCUA, CN=NodeOPCUA
        Validity
            Not Before: May 15 13:59:47 2018 GMT
            Not After : May 15 13:59:47 2019 GMT
        Subject: O=NodeOPCUA, CN=NodeOPCUA
        Subject Public Key Info:
            Public Key Algorithm: rsaEncryption
                Public-Key: (3072 bit)
                Modulus:
                    00:c5:8a:2c:8c:5c:f0:58:fe:73:29:53:81:d5:fd:
                    e4:19:f2:57:c8:03:3e:d0:49:b0:14:22:d2:76:21:
                    a5:00:07:81:9b:77:80:b2:9f:c4:0d:0a:9a:05:0b:
                    8b:c1:db:ae:25:f6:88:b3:06:e5:48:dd:83:e2:3a:
                    e3:b6:7b:c7:8d:c8:9a:f8:fb:c0:62:84:07:8f:a4:
                    cb:1a:89:6b:3c:22:01:75:a7:f3:d9:4f:68:4c:b9:
                    b9:ec:75:bf:98:5f:f7:35:32:8d:27:39:d4:12:52:
                    bd:77:cb:ad:73:12:3e:f9:32:b2:7c:3d:c1:8e:e1:
                    62:76:8c:1c:35:bc:25:42:1e:cf:ba:31:37:d4:ba:
                    4c:8a:75:30:1c:ff:6a:78:1f:e0:2c:14:ef:1d:76:
                    d9:55:7c:98:69:58:87:d8:71:0f:eb:d2:89:17:2d:
                    da:fa:37:59:3e:30:42:58:97:53:63:d1:5e:2e:cf:
                    a6:2e:05:a3:dd:7c:d1:b3:b7:ec:4f:08:30:d4:38:
                    f9:a2:61:f9:1f:b3:2e:ee:db:9f:b6:77:2c:35:c4:
                    b4:9e:ce:86:19:05:3d:1f:0f:5a:1d:2f:0d:a7:2c:
                    16:8d:b8:cd:b1:94:a1:80:7b:4d:67:7f:4e:70:0e:
                    6f:66:b4:bd:29:9d:1e:2b:cf:53:a2:2a:66:b9:6f:
                    9f:1c:55:e9:34:75:7b:01:23:0d:4b:8c:b1:74:36:
                    76:a1:4d:47:dc:e9:f4:ec:d2:a1:cb:df:0e:17:2b:
                    f6:38:e4:d5:90:45:ea:b8:bc:0b:8b:ca:06:83:e0:
                    c5:be:30:3d:6a:8d:fb:04:c1:f0:29:b5:93:4a:ce:
                    a7:43:78:b2:0b:9e:48:8c:3d:95:2d:64:48:a9:29:
                    9e:c2:d3:18:0d:8b:06:d1:a4:fa:b3:b7:4d:e8:e8:
                    4b:c0:dc:56:dc:2c:9d:67:e9:2f:dd:18:c0:20:97:
                    d3:8c:0f:4a:09:77:c5:09:86:58:dd:f2:06:bf:67:
                    d2:f1:93:74:65:41:00:9f:72:13
                Exponent: 65537 (0x10001)
        X509v3 extensions:
            X509v3 Basic Constraints: critical
                CA:FALSE
            X509v3 Subject Key Identifier: 
                0B:B5:F2:41:66:30:EB:D8:A4:BB:F8:76:81:F3:05:B5:C7:2C:26:15
            X509v3 Authority Key Identifier: 
                keyid:0B:B5:F2:41:66:30:EB:D8:A4:BB:F8:76:81:F3:05:B5:C7:2C:26:15
                DirName:/O=NodeOPCUA/CN=NodeOPCUA
                serial:10:15

            X509v3 Subject Alternative Name: 
                URI:urn:ROK:NodeOPCUA-DiscoveryServer, DNS:localhost, DNS:ROK
            Netscape Comment: 
                OpenSSL Generated Certificate
            X509v3 Key Usage: critical
                Digital Signature, Non Repudiation, Key Encipherment, Data Encipherment, Key Agreement, Certificate Sign
            X509v3 Extended Key Usage: critical
                TLS Web Server Authentication, TLS Web Client Authentication
    Signature Algorithm: sha256WithRSAEncryption
         56:4e:88:5d:c5:f1:d2:d4:1b:cc:c6:7e:1a:f6:d4:ff:49:e4:
         d4:b4:1f:e4:43:cf:b0:4f:1e:b8:ef:18:12:4e:da:f0:0f:21:
         37:1c:ad:24:99:97:65:49:4a:70:68:dc:2c:65:91:d8:43:32:
         90:67:94:d7:de:4c:b1:c0:57:77:7e:5b:16:2d:ca:fb:c2:9f:
         0b:01:16:8e:62:f9:b5:e3:3e:ff:21:0d:81:90:84:8f:b4:54:
         41:5e:2f:4b:d8:5d:f2:d4:e5:44:9b:01:bf:ae:c7:ab:e6:9f:
         3b:ad:b6:13:67:61:c6:a1:42:8e:0c:d3:00:96:19:b0:7f:23:
         78:a7:95:a7:85:ae:76:60:39:88:48:6e:b4:2c:79:06:1a:cb:
         11:37:5d:a0:14:c7:c2:41:48:6b:c7:2b:36:70:31:96:08:e0:
         0d:b4:47:f3:c7:c1:fe:9a:15:2f:9f:91:4e:ca:68:de:6a:98:
         6d:94:60:af:02:da:55:51:05:8c:7a:26:01:5e:80:9f:02:aa:
         ca:9e:6b:33:e7:81:b8:1a:1e:a6:87:a3:8a:9d:79:37:f4:f1:
         07:2d:4a:69:3c:64:7e:5f:05:de:7c:b2:9d:bf:e7:17:73:ae:
         2e:12:c1:9c:12:8a:f5:1c:28:94:22:c1:7e:56:ef:3c:c0:6f:
         19:4b:d2:f9:64:f5:42:7d:8b:b0:81:5a:5a:f2:b0:ba:b8:f6:
         7e:20:2a:79:f1:70:bb:54:c4:bf:50:81:65:d3:96:03:0f:f5:
         22:66:e6:c5:b9:ee:c6:03:8b:b3:62:26:52:8a:39:2c:da:bb:
         d2:0c:03:65:cf:84:8f:2c:28:8d:b3:a3:b9:c9:be:8d:b0:d9:
         31:82:c8:db:c0:eb:6d:d0:69:f5:c9:eb:0e:bd:70:68:80:15:
         cb:e3:49:51:ee:00:c0:98:6a:14:33:7b:9b:6b:87:09:f5:95:
         ab:dd:ac:7f:39:37:d3:8e:cc:d4:94:70:18:c4:bc:87:d1:67:
         e1:14:97:04:89:65
-----BEGIN CERTIFICATE-----
MIIE9DCCA1ygAwIBAgICEBUwDQYJKoZIhvcNAQELBQAwKDESMBAGA1UEChMJTm9k
ZU9QQ1VBMRIwEAYDVQQDEwlOb2RlT1BDVUEwIhgPMjAxODA1MTUxMzU5NDdaGA8y
MDE5MDUxNTEzNTk0N1owKDESMBAGA1UEChMJTm9kZU9QQ1VBMRIwEAYDVQQDEwlO
b2RlT1BDVUEwggGiMA0GCSqGSIb3DQEBAQUAA4IBjwAwggGKAoIBgQDFiiyMXPBY
/nMpU4HV/eQZ8lfIAz7QSbAUItJ2IaUAB4Gbd4Cyn8QNCpoFC4vB264l9oizBuVI
3YPiOuO2e8eNyJr4+8BihAePpMsaiWs8IgF1p/PZT2hMubnsdb+YX/c1Mo0nOdQS
Ur13y61zEj75MrJ8PcGO4WJ2jBw1vCVCHs+6MTfUukyKdTAc/2p4H+AsFO8ddtlV
fJhpWIfYcQ/r0okXLdr6N1k+MEJYl1Nj0V4uz6YuBaPdfNGzt+xPCDDUOPmiYfkf
sy7u25+2dyw1xLSezoYZBT0fD1odLw2nLBaNuM2xlKGAe01nf05wDm9mtL0pnR4r
z1OiKma5b58cVek0dXsBIw1LjLF0NnahTUfc6fTs0qHL3w4XK/Y45NWQReq4vAuL
ygaD4MW+MD1qjfsEwfAptZNKzqdDeLILnkiMPZUtZEipKZ7C0xgNiwbRpPqzt03o
6EvA3FbcLJ1n6S/dGMAgl9OMD0oJd8UJhljd8ga/Z9Lxk3RlQQCfchMCAwEAAaOC
ASIwggEeMAwGA1UdEwEB/wQCMAAwHQYDVR0OBBYEFAu18kFmMOvYpLv4doHzBbXH
LCYVMFEGA1UdIwRKMEiAFAu18kFmMOvYpLv4doHzBbXHLCYVoSykKjAoMRIwEAYD
VQQKEwlOb2RlT1BDVUExEjAQBgNVBAMTCU5vZGVPUENVQYICEBUwPAYDVR0RBDUw
M4YhdXJuOlJPSzpOb2RlT1BDVUEtRGlzY292ZXJ5U2VydmVygglsb2NhbGhvc3SC
A1JPSzAsBglghkgBhvhCAQ0EHxYdT3BlblNTTCBHZW5lcmF0ZWQgQ2VydGlmaWNh
dGUwDgYDVR0PAQH/BAQDAgL8MCAGA1UdJQEB/wQWMBQGCCsGAQUFBwMBBggrBgEF
BQcDAjANBgkqhkiG9w0BAQsFAAOCAYEAVk6IXcXx0tQbzMZ+GvbU/0nk1LQf5EPP
sE8euO8YEk7a8A8hNxytJJmXZUlKcGjcLGWR2EMykGeU195MscBXd35bFi3K+8Kf
CwEWjmL5teM+/yENgZCEj7RUQV4vS9hd8tTlRJsBv67Hq+afO622E2dhxqFCjgzT
AJYZsH8jeKeVp4WudmA5iEhutCx5BhrLETddoBTHwkFIa8crNnAxlgjgDbRH88fB
/poVL5+RTspo3mqYbZRgrwLaVVEFjHomAV6AnwKqyp5rM+eBuBoepoejip15N/Tx
By1KaTxkfl8F3nyynb/nF3OuLhLBnBKK9RwolCLBflbvPMBvGUvS+WT1Qn2LsIFa
WvKwurj2fiAqefFwu1TEv1CBZdOWAw/1ImbmxbnuxgOLs2ImUoo5LNq70gwDZc+E
jywojbOjucm+jbDZMYLI28DrbdBp9cnrDr1waIAVy+NJUe4AwJhqFDN7m2uHCfWV
q92sfzk3047M1JRwGMS8h9Fn4RSXBIll
-----END CERTIFICATE-----
