Certificate:
    Data:
        Version: 3 (0x2)
        Serial Number: 4112 (0x1010)
    Signature Algorithm: sha256WithRSAEncryption
        Issuer: C=FR, ST=IDF, L=Paris, O=Local NODE-OPCUA Certificate Authority, CN=NodeOPCUA-CA
        Validity
            Not Before: May 15 13:59:47 2018 GMT
            Not After : May 15 13:59:47 2019 GMT
        Subject: C=FR, O=NodeOPCUA, CN=NodeOPCUA
        Subject Public Key Info:
            Public Key Algorithm: rsaEncryption
                Public-Key: (1024 bit)
                Modulus:
                    00:bb:9f:94:53:85:cb:5c:ed:00:52:fe:71:79:22:
                    2d:7c:1f:cb:23:a8:c7:48:b5:f1:f9:82:ca:16:fd:
                    e3:d5:22:f4:2a:d3:93:3c:c0:5c:8a:60:2d:b8:e0:
                    48:37:c0:7b:b3:31:9e:7c:9f:41:28:01:6e:04:fc:
                    e1:8f:9c:6d:a3:ed:3e:2b:ab:1f:96:c7:16:d2:b9:
                    b7:6f:b2:cf:d4:cb:5b:63:ed:ae:32:14:88:74:3d:
                    02:e2:b4:ed:92:86:6c:70:b0:9a:b3:66:00:c2:17:
                    e5:4c:0d:e3:e3:10:9a:d8:d8:4f:fd:d5:41:0f:f6:
                    5c:45:92:be:c5:10:94:b2:bf
                Exponent: 65537 (0x10001)
        X509v3 extensions:
            X509v3 Basic Constraints: critical
                CA:FALSE
            X509v3 Subject Key Identifier: 
                BE:FD:74:49:90:16:12:19:93:14:AC:21:21:62:95:68:1C:94:57:E1
            X509v3 Authority Key Identifier: 
                keyid:EF:64:4A:61:32:B7:3A:48:DF:68:ED:C7:34:4D:A2:53:DB:6A:49:07
                DirName:/C=FR/ST=IDF/L=Paris/O=Local NODE-OPCUA Certificate Authority/CN=NodeOPCUA-CA
                serial:C8:0D:72:93:8C:CC:B7:A5

            X509v3 Subject Alternative Name: 
                URI:urn:ROK:NodeOPCUA-DiscoveryServer, DNS:localhost, DNS:ROK
            Netscape Comment: 
                OpenSSL Generated Certificate
            X509v3 Key Usage: critical
                Digital Signature, Non Repudiation, Key Encipherment, Data Encipherment, Key Agreement, Certificate Sign
            X509v3 Extended Key Usage: critical
                TLS Web Server Authentication, TLS Web Client Authentication
    Signature Algorithm: sha256WithRSAEncryption
         c0:2e:47:9d:f1:d0:aa:eb:cb:f9:b7:88:fd:94:9d:81:1f:53:
         8a:1e:26:40:f5:76:4f:12:2c:44:3a:8b:34:af:8f:24:d6:2b:
         b4:93:93:cd:ff:b4:74:81:4b:c0:d4:b8:19:43:9f:be:fb:90:
         8f:e6:7b:ed:72:c7:4c:de:b5:a6:9c:70:c5:45:11:9d:00:cb:
         ab:5f:b7:18:0c:e4:5a:e2:01:2a:53:73:a9:34:64:5e:5f:4a:
         a1:d8:42:a1:c5:3a:5e:e9:cb:d8:4c:df:63:8b:9c:f7:40:cc:
         cf:73:83:e7:e8:38:fa:44:f2:4c:65:04:c5:80:ea:32:8e:16:
         65:e4:0f:43:fa:c9:53:77:29:64:ae:19:96:97:d2:ec:ef:aa:
         9f:0b:a8:71:8d:a6:c9:4f:3c:8c:a3:bc:d0:85:f2:b3:41:d1:
         b9:7e:a3:d2:d9:49:78:41:3b:d4:0c:ad:29:e4:37:f7:d3:2d:
         e5:1c:1d:ea:95:cd:a9:ff:8a:ed:cc:43:c5:9d:c0:f7:2d:2c:
         dc:42:37:a0:b9:82:4b:9b:20:23:3e:8c:36:70:8d:d7:46:d3:
         b4:4d:6d:2e:87:8b:8a:ba:9f:ee:3e:32:a3:ab:64:d1:8f:a7:
         9e:3a:a4:d6:f7:e3:6b:c0:c7:74:55:cb:28:3d:5e:e4:cf:dd:
         3c:ed:63:7a
-----BEGIN CERTIFICATE-----
MIIEHTCCAwWgAwIBAgICEBAwDQYJKoZIhvcNAQELBQAwczELMAkGA1UEBhMCRlIx
DDAKBgNVBAgTA0lERjEOMAwGA1UEBxMFUGFyaXMxLzAtBgNVBAoTJkxvY2FsIE5P
REUtT1BDVUEgQ2VydGlmaWNhdGUgQXV0aG9yaXR5MRUwEwYDVQQDEwxOb2RlT1BD
VUEtQ0EwIhgPMjAxODA1MTUxMzU5NDdaGA8yMDE5MDUxNTEzNTk0N1owNTELMAkG
A1UEBhMCRlIxEjAQBgNVBAoMCU5vZGVPUENVQTESMBAGA1UEAwwJTm9kZU9QQ1VB
MIGfMA0GCSqGSIb3DQEBAQUAA4GNADCBiQKBgQC7n5RThctc7QBS/nF5Ii18H8sj
qMdItfH5gsoW/ePVIvQq05M8wFyKYC244Eg3wHuzMZ58n0EoAW4E/OGPnG2j7T4r
qx+WxxbSubdvss/Uy1tj7a4yFIh0PQLitO2ShmxwsJqzZgDCF+VMDePjEJrY2E/9
1UEP9lxFkr7FEJSyvwIDAQABo4IBdzCCAXMwDAYDVR0TAQH/BAIwADAdBgNVHQ4E
FgQUvv10SZAWEhmTFKwhIWKVaByUV+EwgaUGA1UdIwSBnTCBmoAU72RKYTK3Okjf
aO3HNE2iU9tqSQehd6R1MHMxCzAJBgNVBAYTAkZSMQwwCgYDVQQIEwNJREYxDjAM
BgNVBAcTBVBhcmlzMS8wLQYDVQQKEyZMb2NhbCBOT0RFLU9QQ1VBIENlcnRpZmlj
YXRlIEF1dGhvcml0eTEVMBMGA1UEAxMMTm9kZU9QQ1VBLUNBggkAyA1yk4zMt6Uw
PAYDVR0RBDUwM4YhdXJuOlJPSzpOb2RlT1BDVUEtRGlzY292ZXJ5U2VydmVyggls
b2NhbGhvc3SCA1JPSzAsBglghkgBhvhCAQ0EHxYdT3BlblNTTCBHZW5lcmF0ZWQg
Q2VydGlmaWNhdGUwDgYDVR0PAQH/BAQDAgL8MCAGA1UdJQEB/wQWMBQGCCsGAQUF
BwMBBggrBgEFBQcDAjANBgkqhkiG9w0BAQsFAAOCAQEAwC5HnfHQquvL+beI/ZSd
gR9Tih4mQPV2TxIsRDqLNK+PJNYrtJOTzf+0dIFLwNS4GUOfvvuQj+Z77XLHTN61
ppxwxUURnQDLq1+3GAzkWuIBKlNzqTRkXl9KodhCocU6XunL2EzfY4uc90DMz3OD
5+g4+kTyTGUExYDqMo4WZeQPQ/rJU3cpZK4ZlpfS7O+qnwuocY2myU88jKO80IXy
s0HRuX6j0tlJeEE71AytKeQ399Mt5Rwd6pXNqf+K7cxDxZ3A9y0s3EI3oLmCS5sg
Iz6MNnCN10bTtE1tLoeLirqf7j4yo6tk0Y+nnjqk1vfja8DHdFXLKD1e5M/dPO1j
eg==
-----END CERTIFICATE-----
-----BEGIN CERTIFICATE-----
MIIE3TCCA8WgAwIBAgIJAMgNcpOMzLelMA0GCSqGSIb3DQEBCwUAMHMxCzAJBgNV
BAYTAkZSMQwwCgYDVQQIEwNJREYxDjAMBgNVBAcTBVBhcmlzMS8wLQYDVQQKEyZM
b2NhbCBOT0RFLU9QQ1VBIENlcnRpZmljYXRlIEF1dGhvcml0eTEVMBMGA1UEAxMM
Tm9kZU9QQ1VBLUNBMB4XDTE4MDUxNjEzNTk0OVoXDTI4MDUxMzEzNTk0OVowczEL
MAkGA1UEBhMCRlIxDDAKBgNVBAgTA0lERjEOMAwGA1UEBxMFUGFyaXMxLzAtBgNV
BAoTJkxvY2FsIE5PREUtT1BDVUEgQ2VydGlmaWNhdGUgQXV0aG9yaXR5MRUwEwYD
VQQDEwxOb2RlT1BDVUEtQ0EwggEiMA0GCSqGSIb3DQEBAQUAA4IBDwAwggEKAoIB
AQDIYJd2w8gwNnGFEs7eQqrgnt4M3ruKFfahBF0srsQq6HNRelGnYeO99eUGt3Vy
p+ZZ1c1+ObnNRE/xcE0p8bhLKXWQTzz9HdtzThuVRXhEnEz1nJfaW98AMe9ALdha
ojSOmqA3KYZu3LJ57t405lFDHeZdWZfNX4b3GTbBYw91M7uc3iwgVa0ddb6Go8Nl
wdoCrRVB5cojd7ZMfYgEREzCqrSSh5ATkOAjRbmA+9Oz9isrmLEJGdmWbIWhvQ2/
1QPMyW7isPVf7nqiOERhTSVh4tjD6VMBnk2ROYmCqcY1tA/YN9wWs41xXP3V9QlT
zAzXxxdjP1ojqeaBZX2/wi2/AgMBAAGjggFyMIIBbjAdBgNVHQ4EFgQU72RKYTK3
OkjfaO3HNE2iU9tqSQcwgaUGA1UdIwSBnTCBmoAU72RKYTK3OkjfaO3HNE2iU9tq
SQehd6R1MHMxCzAJBgNVBAYTAkZSMQwwCgYDVQQIEwNJREYxDjAMBgNVBAcTBVBh
cmlzMS8wLQYDVQQKEyZMb2NhbCBOT0RFLU9QQ1VBIENlcnRpZmljYXRlIEF1dGhv
cml0eTEVMBMGA1UEAxMMTm9kZU9QQ1VBLUNBggkAyA1yk4zMt6UwDAYDVR0TBAUw
AwEB/zAOBgNVHQ8BAf8EBAMCAQYwVwYJYIZIAYb4QgENBEoWSENBIENlcnRpZmlj
YXRlIGdlbmVyYXRlZCBieSBOb2RlLU9QQ1VBIENlcnRpZmljYXRlIHV0aWxpdHkg
dXNpbmcgb3BlbnNzbDAuBgNVHR8EJzAlMCOgIaAfhh1odHRwOi8vbG9jYWxob3N0
Ojg5MDAvY3JsLnBlbTANBgkqhkiG9w0BAQsFAAOCAQEAiz9UPXxad5VxkTvkIJQU
mYjbyKUmSc4VDespEmzmyaARbmp5le4KxKjzkBFdutBDUBB+G9o9nc1biY6p5ZUG
MzV4FO4VqP2e65ZV60tNvBksGbX9gjuLRnMA20r6F+rFN1xs8SolnzdJ/VDOnQPg
yZBvufyMvcPqoJzdnhYhgmik/4SdEdC7aBAQA9VLm9jyI7v8MLX1WlAJmWCXmNL0
MM2iTWkn3uydTZkcC0IyD93upvYHG1flUZPjP4VuRU5+QIsZOGmE0NC3NBiw9kr2
zL3lRxGbPLmaoVbx60MsYoudb/FzkKW0qgAwozLImzJ7TdNDqr6opbi36xzVs0go
ZQ==
-----END CERTIFICATE-----
