Certificate Request:
    Data:
        Version: 0 (0x0)
        Subject: C=FR, O=NodeOPCUA, CN=NodeOPCUA
        Subject Public Key Info:
            Public Key Algorithm: rsaEncryption
                Public-Key: (2048 bit)
                Modulus:
                    00:bf:d8:7e:a0:06:8f:ce:b6:90:7e:c0:a0:96:92:
                    99:dc:1c:3d:8b:6c:97:21:2a:c9:9d:41:e3:61:37:
                    f8:6b:c4:44:e4:9b:d0:3c:1d:7e:ce:3b:8a:6b:f3:
                    78:1b:6e:57:a6:36:6e:e4:fe:66:c4:db:05:9a:54:
                    27:5e:25:56:0c:48:a1:3a:da:74:56:46:26:d7:1a:
                    e5:0e:b6:cd:15:14:98:fa:da:a3:02:a3:0b:de:97:
                    3c:8d:8e:91:ab:0e:5a:0f:92:7b:e4:82:51:bd:bb:
                    9c:5d:6a:13:86:41:58:70:6e:96:e9:ef:65:aa:1b:
                    94:b3:a6:ed:2d:30:53:93:40:cf:8b:fc:bf:58:f9:
                    1b:1d:0d:2e:e6:22:6b:5d:d6:0c:9e:28:b7:1f:cc:
                    a5:24:47:d1:3d:f3:21:96:fd:a4:fd:4f:6f:b7:a9:
                    9d:c4:a2:21:fd:eb:15:d8:5c:4b:94:39:92:9c:24:
                    b5:1d:7c:dd:e2:dc:ba:57:f6:b4:f2:f6:84:aa:d6:
                    93:95:99:02:d9:d1:26:a6:f3:c0:5a:66:17:93:94:
                    43:50:ab:15:7f:41:49:2b:83:eb:1d:ee:cb:b6:e3:
                    50:4b:ef:f4:15:43:f9:00:7c:9e:c1:ce:60:d5:7b:
                    e4:bc:6f:25:15:49:e2:aa:9f:ec:46:a0:6a:13:63:
                    10:c5
                Exponent: 65537 (0x10001)
        Attributes:
        Requested Extensions:
            X509v3 Basic Constraints: 
                CA:FALSE
            X509v3 Key Usage: critical
                Certificate Sign, CRL Sign
            X509v3 Subject Alternative Name: 
                URI:undefined
    Signature Algorithm: sha256WithRSAEncryption
         35:1c:bb:3b:9c:9f:3f:31:89:51:ec:a8:5d:de:0a:86:1f:1c:
         7f:f1:68:93:85:9b:90:00:cb:f0:64:9b:6d:97:22:d6:fb:10:
         93:e4:25:34:3b:2a:d2:ab:4e:36:85:87:f6:e7:a2:fc:89:3b:
         2e:2c:e7:12:87:e4:51:cf:c3:f1:ce:90:e9:ba:5d:75:5f:c1:
         07:5c:90:ee:b9:3d:25:10:67:bb:50:94:bd:6c:47:e0:5e:ff:
         4d:57:3f:93:c2:13:10:48:7c:c9:cd:ec:7d:38:4a:a6:57:6a:
         b5:5d:19:55:ec:d4:ba:0f:6f:a1:09:7a:20:ba:dd:b5:43:d8:
         2c:21:b3:1f:f6:d7:6e:c5:71:d1:2e:95:fd:96:b4:65:b6:90:
         3d:e6:c5:f8:5c:e2:a6:2e:46:ef:e4:cf:b9:23:e1:3d:07:bc:
         96:9d:57:db:a4:96:ec:a7:66:80:53:48:13:31:2a:de:8e:14:
         3e:94:02:a3:75:7e:80:fb:b1:92:61:35:3a:29:93:88:82:ea:
         99:67:c4:8c:03:bc:26:7b:55:0a:6f:f1:8b:fa:3c:11:24:b7:
         0a:47:a5:14:f1:da:ce:f7:fe:ab:89:0e:2f:09:7c:ab:47:19:
         32:35:47:8c:74:d8:94:6c:01:e2:a1:cc:6d:0a:15:cd:34:36:
         21:9d:af:e0
-----BEGIN CERTIFICATE REQUEST-----
MIICvDCCAaQCAQAwNTELMAkGA1UEBhMCRlIxEjAQBgNVBAoMCU5vZGVPUENVQTES
MBAGA1UEAwwJTm9kZU9QQ1VBMIIBIjANBgkqhkiG9w0BAQEFAAOCAQ8AMIIBCgKC
AQEAv9h+oAaPzraQfsCglpKZ3Bw9i2yXISrJnUHjYTf4a8RE5JvQPB1+zjuKa/N4
G25XpjZu5P5mxNsFmlQnXiVWDEihOtp0VkYm1xrlDrbNFRSY+tqjAqML3pc8jY6R
qw5aD5J75IJRvbucXWoThkFYcG6W6e9lqhuUs6btLTBTk0DPi/y/WPkbHQ0u5iJr
XdYMnii3H8ylJEfRPfMhlv2k/U9vt6mdxKIh/esV2FxLlDmSnCS1HXzd4ty6V/a0
8vaEqtaTlZkC2dEmpvPAWmYXk5RDUKsVf0FJK4PrHe7LtuNQS+/0FUP5AHyewc5g
1XvkvG8lFUniqp/sRqBqE2MQxQIDAQABoEIwQAYJKoZIhvcNAQkOMTMwMTAJBgNV
HRMEAjAAMA4GA1UdDwEB/wQEAwIBBjAUBgNVHREEDTALhgl1bmRlZmluZWQwDQYJ
KoZIhvcNAQELBQADggEBADUcuzucnz8xiVHsqF3eCoYfHH/xaJOFm5AAy/Bkm22X
Itb7EJPkJTQ7KtKrTjaFh/bnovyJOy4s5xKH5FHPw/HOkOm6XXVfwQdckO65PSUQ
Z7tQlL1sR+Be/01XP5PCExBIfMnN7H04SqZXarVdGVXs1LoPb6EJeiC63bVD2Cwh
sx/2127FcdEulf2WtGW2kD3mxfhc4qYuRu/kz7kj4T0HvJadV9ukluynZoBTSBMx
Kt6OFD6UAqN1foD7sZJhNTopk4iC6plnxIwDvCZ7VQpv8Yv6PBEktwpHpRTx2s73
/quJDi8JfKtHGTI1R4x02JRsAeKhzG0KFc00NiGdr+A=
-----END CERTIFICATE REQUEST-----
