Certificate Request:
    Data:
        Version: 0 (0x0)
        Subject: C=FR, O=NodeOPCUA, CN=NodeOPCUA
        Subject Public Key Info:
            Public Key Algorithm: rsaEncryption
                Public-Key: (3072 bit)
                Modulus:
                    00:c5:8a:2c:8c:5c:f0:58:fe:73:29:53:81:d5:fd:
                    e4:19:f2:57:c8:03:3e:d0:49:b0:14:22:d2:76:21:
                    a5:00:07:81:9b:77:80:b2:9f:c4:0d:0a:9a:05:0b:
                    8b:c1:db:ae:25:f6:88:b3:06:e5:48:dd:83:e2:3a:
                    e3:b6:7b:c7:8d:c8:9a:f8:fb:c0:62:84:07:8f:a4:
                    cb:1a:89:6b:3c:22:01:75:a7:f3:d9:4f:68:4c:b9:
                    b9:ec:75:bf:98:5f:f7:35:32:8d:27:39:d4:12:52:
                    bd:77:cb:ad:73:12:3e:f9:32:b2:7c:3d:c1:8e:e1:
                    62:76:8c:1c:35:bc:25:42:1e:cf:ba:31:37:d4:ba:
                    4c:8a:75:30:1c:ff:6a:78:1f:e0:2c:14:ef:1d:76:
                    d9:55:7c:98:69:58:87:d8:71:0f:eb:d2:89:17:2d:
                    da:fa:37:59:3e:30:42:58:97:53:63:d1:5e:2e:cf:
                    a6:2e:05:a3:dd:7c:d1:b3:b7:ec:4f:08:30:d4:38:
                    f9:a2:61:f9:1f:b3:2e:ee:db:9f:b6:77:2c:35:c4:
                    b4:9e:ce:86:19:05:3d:1f:0f:5a:1d:2f:0d:a7:2c:
                    16:8d:b8:cd:b1:94:a1:80:7b:4d:67:7f:4e:70:0e:
                    6f:66:b4:bd:29:9d:1e:2b:cf:53:a2:2a:66:b9:6f:
                    9f:1c:55:e9:34:75:7b:01:23:0d:4b:8c:b1:74:36:
                    76:a1:4d:47:dc:e9:f4:ec:d2:a1:cb:df:0e:17:2b:
                    f6:38:e4:d5:90:45:ea:b8:bc:0b:8b:ca:06:83:e0:
                    c5:be:30:3d:6a:8d:fb:04:c1:f0:29:b5:93:4a:ce:
                    a7:43:78:b2:0b:9e:48:8c:3d:95:2d:64:48:a9:29:
                    9e:c2:d3:18:0d:8b:06:d1:a4:fa:b3:b7:4d:e8:e8:
                    4b:c0:dc:56:dc:2c:9d:67:e9:2f:dd:18:c0:20:97:
                    d3:8c:0f:4a:09:77:c5:09:86:58:dd:f2:06:bf:67:
                    d2:f1:93:74:65:41:00:9f:72:13
                Exponent: 65537 (0x10001)
        Attributes:
        Requested Extensions:
            X509v3 Basic Constraints: 
                CA:FALSE
            X509v3 Key Usage: critical
                Certificate Sign, CRL Sign
            X509v3 Subject Alternative Name: 
                URI:undefined
    Signature Algorithm: sha256WithRSAEncryption
         49:3f:a1:67:50:b1:21:ee:fa:9e:cf:46:6c:b2:82:80:c4:cb:
         f6:5a:63:27:18:cf:7e:b1:32:ed:18:e8:82:9a:98:fe:3e:37:
         79:3e:7d:da:d5:63:4b:62:5b:86:7e:73:b7:03:d0:9e:e9:b3:
         b8:36:98:0d:7d:cf:4f:32:6d:a4:4b:ef:b0:98:a9:92:08:e7:
         a3:e3:54:ea:40:14:9c:fd:6e:05:96:27:86:05:71:59:12:cf:
         58:03:1f:e8:ad:0d:74:43:44:40:e6:4b:f7:17:60:57:ce:38:
         60:2e:b3:62:29:81:08:cc:ff:62:51:48:18:8c:92:5b:40:7a:
         0a:e1:82:03:32:72:b0:9e:ec:9f:84:ad:65:41:7a:ae:5e:96:
         2a:9f:e1:3d:ca:86:9d:b1:99:4a:d2:c7:a7:e1:5b:31:40:4c:
         ac:a9:0f:ce:45:21:7c:18:f7:8f:8b:6d:61:c8:33:03:38:f7:
         16:2c:90:87:e4:f1:67:98:c2:93:1e:af:57:ef:a0:bc:c1:b5:
         6a:15:94:5f:ef:ab:97:3c:a4:b7:dd:19:71:a3:fe:fa:72:7c:
         1e:84:29:28:cc:df:b6:c5:e8:ac:30:ee:b7:c9:66:f2:30:99:
         56:59:42:5a:0b:21:1a:74:4a:13:e0:70:0d:34:c7:04:c4:b8:
         ae:e6:49:c8:8c:7f:0f:73:4f:6d:3b:6f:88:42:1d:ad:df:64:
         f3:c1:7e:da:66:4e:56:9a:b6:c1:de:ec:d0:c7:b3:04:45:65:
         a0:47:aa:ba:91:a5:a8:7f:d6:86:f8:f1:2b:e4:e7:36:c3:69:
         8e:d4:c7:de:b8:55:81:15:a9:15:36:9b:77:b3:cb:30:65:e0:
         bf:f2:f3:53:60:87:24:f9:04:3a:32:d0:7b:82:fc:8b:c2:09:
         5d:f1:8b:00:d4:3e:e2:87:10:c6:91:4f:95:ca:4a:c1:70:a3:
         1a:60:ad:72:b1:73:76:e1:8e:76:a7:3b:2e:78:c5:ab:c0:81:
         1f:81:72:cb:30:50
-----BEGIN CERTIFICATE REQUEST-----
MIIDvDCCAiQCAQAwNTELMAkGA1UEBhMCRlIxEjAQBgNVBAoMCU5vZGVPUENVQTES
MBAGA1UEAwwJTm9kZU9QQ1VBMIIBojANBgkqhkiG9w0BAQEFAAOCAY8AMIIBigKC
AYEAxYosjFzwWP5zKVOB1f3kGfJXyAM+0EmwFCLSdiGlAAeBm3eAsp/EDQqaBQuL
wduuJfaIswblSN2D4jrjtnvHjcia+PvAYoQHj6TLGolrPCIBdafz2U9oTLm57HW/
mF/3NTKNJznUElK9d8utcxI++TKyfD3BjuFidowcNbwlQh7PujE31LpMinUwHP9q
eB/gLBTvHXbZVXyYaViH2HEP69KJFy3a+jdZPjBCWJdTY9FeLs+mLgWj3XzRs7fs
Twgw1Dj5omH5H7Mu7tuftncsNcS0ns6GGQU9Hw9aHS8NpywWjbjNsZShgHtNZ39O
cA5vZrS9KZ0eK89ToipmuW+fHFXpNHV7ASMNS4yxdDZ2oU1H3On07NKhy98OFyv2
OOTVkEXquLwLi8oGg+DFvjA9ao37BMHwKbWTSs6nQ3iyC55IjD2VLWRIqSmewtMY
DYsG0aT6s7dN6OhLwNxW3CydZ+kv3RjAIJfTjA9KCXfFCYZY3fIGv2fS8ZN0ZUEA
n3ITAgMBAAGgQjBABgkqhkiG9w0BCQ4xMzAxMAkGA1UdEwQCMAAwDgYDVR0PAQH/
BAQDAgEGMBQGA1UdEQQNMAuGCXVuZGVmaW5lZDANBgkqhkiG9w0BAQsFAAOCAYEA
ST+hZ1CxIe76ns9GbLKCgMTL9lpjJxjPfrEy7RjogpqY/j43eT592tVjS2Jbhn5z
twPQnumzuDaYDX3PTzJtpEvvsJipkgjno+NU6kAUnP1uBZYnhgVxWRLPWAMf6K0N
dENEQOZL9xdgV844YC6zYimBCMz/YlFIGIySW0B6CuGCAzJysJ7sn4StZUF6rl6W
Kp/hPcqGnbGZStLHp+FbMUBMrKkPzkUhfBj3j4ttYcgzAzj3FiyQh+TxZ5jCkx6v
V++gvMG1ahWUX++rlzykt90ZcaP++nJ8HoQpKMzftsXorDDut8lm8jCZVllCWgsh
GnRKE+BwDTTHBMS4ruZJyIx/D3NPbTtviEIdrd9k88F+2mZOVpq2wd7s0MezBEVl
oEequpGlqH/WhvjxK+TnNsNpjtTH3rhVgRWpFTabd7PLMGXgv/LzU2CHJPkEOjLQ
e4L8i8IJXfGLANQ+4ocQxpFPlcpKwXCjGmCtcrFzduGOdqc7LnjFq8CBH4FyyzBQ
-----END CERTIFICATE REQUEST-----
