Certificate Request:
    Data:
        Version: 0 (0x0)
        Subject: C=FR, O=NodeOPCUA, CN=NodeOPCUA
        Subject Public Key Info:
            Public Key Algorithm: rsaEncryption
                Public-Key: (1024 bit)
                Modulus:
                    00:bb:9f:94:53:85:cb:5c:ed:00:52:fe:71:79:22:
                    2d:7c:1f:cb:23:a8:c7:48:b5:f1:f9:82:ca:16:fd:
                    e3:d5:22:f4:2a:d3:93:3c:c0:5c:8a:60:2d:b8:e0:
                    48:37:c0:7b:b3:31:9e:7c:9f:41:28:01:6e:04:fc:
                    e1:8f:9c:6d:a3:ed:3e:2b:ab:1f:96:c7:16:d2:b9:
                    b7:6f:b2:cf:d4:cb:5b:63:ed:ae:32:14:88:74:3d:
                    02:e2:b4:ed:92:86:6c:70:b0:9a:b3:66:00:c2:17:
                    e5:4c:0d:e3:e3:10:9a:d8:d8:4f:fd:d5:41:0f:f6:
                    5c:45:92:be:c5:10:94:b2:bf
                Exponent: 65537 (0x10001)
        Attributes:
        Requested Extensions:
            X509v3 Basic Constraints: 
                CA:FALSE
            X509v3 Key Usage: critical
                Certificate Sign, CRL Sign
            X509v3 Subject Alternative Name: 
                URI:undefined
    Signature Algorithm: sha256WithRSAEncryption
         9b:32:f2:e0:6b:ed:1a:a2:0d:2c:1a:7e:a2:52:16:f8:e9:b5:
         95:42:92:34:1d:94:47:dd:bc:21:6a:a9:99:a4:47:31:86:27:
         3e:cd:1d:73:05:df:06:25:f5:63:b5:4d:df:f9:7f:8f:61:47:
         56:50:99:38:c5:24:8b:84:13:41:76:89:0f:be:5e:6d:05:1e:
         e9:15:a0:9a:12:f1:f3:f2:9c:11:18:12:c3:b9:52:b5:04:41:
         24:a2:4a:ec:fb:9b:0c:92:ad:2a:42:aa:c7:65:17:5d:c1:f6:
         86:f8:11:d3:b6:6e:6f:fa:58:ec:18:a5:73:de:ff:ce:b9:1f:
         5e:bc
-----BEGIN CERTIFICATE REQUEST-----
MIIBtzCCASACAQAwNTELMAkGA1UEBhMCRlIxEjAQBgNVBAoMCU5vZGVPUENVQTES
MBAGA1UEAwwJTm9kZU9QQ1VBMIGfMA0GCSqGSIb3DQEBAQUAA4GNADCBiQKBgQC7
n5RThctc7QBS/nF5Ii18H8sjqMdItfH5gsoW/ePVIvQq05M8wFyKYC244Eg3wHuz
MZ58n0EoAW4E/OGPnG2j7T4rqx+WxxbSubdvss/Uy1tj7a4yFIh0PQLitO2Shmxw
sJqzZgDCF+VMDePjEJrY2E/91UEP9lxFkr7FEJSyvwIDAQABoEIwQAYJKoZIhvcN
AQkOMTMwMTAJBgNVHRMEAjAAMA4GA1UdDwEB/wQEAwIBBjAUBgNVHREEDTALhgl1
bmRlZmluZWQwDQYJKoZIhvcNAQELBQADgYEAmzLy4GvtGqINLBp+olIW+Om1lUKS
NB2UR928IWqpmaRHMYYnPs0dcwXfBiX1Y7VN3/l/j2FHVlCZOMUki4QTQXaJD75e
bQUe6RWgmhLx8/KcERgSw7lStQRBJKJK7PubDJKtKkKqx2UXXcH2hvgR07Zub/pY
7Bilc97/zrkfXrw=
-----END CERTIFICATE REQUEST-----
