Certificate Request:
    Data:
        Version: 0 (0x0)
        Subject: C=FR, O=NodeOPCUA, CN=NodeOPCUA
        Subject Public Key Info:
            Public Key Algorithm: rsaEncryption
                Public-Key: (1024 bit)
                Modulus:
                    00:bb:17:ad:a0:71:f1:af:d1:67:3d:eb:ad:b4:55:
                    5c:94:fe:a0:36:60:29:d4:c8:ee:82:3c:f6:cc:62:
                    0d:73:2b:24:15:c4:5d:0a:05:ce:bd:74:5e:27:97:
                    8f:d9:4f:e7:f9:9c:8f:cf:48:fe:de:36:f7:e5:a4:
                    ff:25:c6:f1:97:73:4d:3d:92:fb:00:71:0b:a0:38:
                    32:3b:ef:34:21:ea:01:25:34:ae:76:a6:09:5d:aa:
                    1d:d1:53:27:87:2e:a9:f3:f9:0f:55:30:2e:70:31:
                    7a:e3:eb:dc:a2:60:ff:97:9d:d2:49:90:8d:68:c3:
                    79:3d:f5:d7:8a:99:1a:39:e3
                Exponent: 65537 (0x10001)
        Attributes:
        Requested Extensions:
            X509v3 Basic Constraints: 
                CA:FALSE
            X509v3 Key Usage: critical
                Certificate Sign, CRL Sign
            X509v3 Subject Alternative Name: 
                URI:undefined
    Signature Algorithm: sha256WithRSAEncryption
         17:3c:d4:2a:98:33:f4:f7:7c:c1:45:37:a7:e3:18:b7:10:9b:
         46:94:7d:8c:45:f7:37:99:b5:ef:d1:b4:ab:26:3e:21:2c:69:
         b9:98:1e:c8:dd:e0:4b:58:7a:22:b6:9c:4f:70:de:fe:3f:83:
         f7:7e:72:b8:e7:98:7b:02:f3:59:7a:ae:46:3f:dd:ff:61:2d:
         14:61:5a:7b:a3:d4:86:3e:af:47:33:70:43:f6:cd:29:2f:be:
         ee:53:50:58:bc:bd:8f:de:fc:e0:9e:67:39:de:bc:94:c7:ba:
         45:c3:6e:4e:fa:80:8c:e5:e9:f7:40:4a:db:d7:f9:d1:32:c5:
         d6:c7
-----BEGIN CERTIFICATE REQUEST-----
MIIBtzCCASACAQAwNTELMAkGA1UEBhMCRlIxEjAQBgNVBAoMCU5vZGVPUENVQTES
MBAGA1UEAwwJTm9kZU9QQ1VBMIGfMA0GCSqGSIb3DQEBAQUAA4GNADCBiQKBgQC7
F62gcfGv0Wc96620VVyU/qA2YCnUyO6CPPbMYg1zKyQVxF0KBc69dF4nl4/ZT+f5
nI/PSP7eNvflpP8lxvGXc009kvsAcQugODI77zQh6gElNK52pgldqh3RUyeHLqnz
+Q9VMC5wMXrj69yiYP+XndJJkI1ow3k99deKmRo54wIDAQABoEIwQAYJKoZIhvcN
AQkOMTMwMTAJBgNVHRMEAjAAMA4GA1UdDwEB/wQEAwIBBjAUBgNVHREEDTALhgl1
bmRlZmluZWQwDQYJKoZIhvcNAQELBQADgYEAFzzUKpgz9Pd8wUU3p+MYtxCbRpR9
jEX3N5m179G0qyY+ISxpuZgeyN3gS1h6IracT3De/j+D935yuOeYewLzWXquRj/d
/2EtFGFae6PUhj6vRzNwQ/bNKS++7lNQWLy9j9784J5nOd68lMe6RcNuTvqAjOXp
90BK29f50TLF1sc=
-----END CERTIFICATE REQUEST-----
