Certificate:
    Data:
        Version: 3 (0x2)
        Serial Number: 4104 (0x1008)
    Signature Algorithm: sha256WithRSAEncryption
        Issuer: C=FR, ST=IDF, L=Paris, O=Local NODE-OPCUA Certificate Authority, CN=NodeOPCUA-CA
        Validity
            Not Before: May 15 13:59:47 2018 GMT
            Not After : May 15 13:59:47 2019 GMT
        Subject: C=FR, O=NodeOPCUA, CN=NodeOPCUA
        Subject Public Key Info:
            Public Key Algorithm: rsaEncryption
                Public-Key: (1024 bit)
                Modulus:
                    00:bb:17:ad:a0:71:f1:af:d1:67:3d:eb:ad:b4:55:
                    5c:94:fe:a0:36:60:29:d4:c8:ee:82:3c:f6:cc:62:
                    0d:73:2b:24:15:c4:5d:0a:05:ce:bd:74:5e:27:97:
                    8f:d9:4f:e7:f9:9c:8f:cf:48:fe:de:36:f7:e5:a4:
                    ff:25:c6:f1:97:73:4d:3d:92:fb:00:71:0b:a0:38:
                    32:3b:ef:34:21:ea:01:25:34:ae:76:a6:09:5d:aa:
                    1d:d1:53:27:87:2e:a9:f3:f9:0f:55:30:2e:70:31:
                    7a:e3:eb:dc:a2:60:ff:97:9d:d2:49:90:8d:68:c3:
                    79:3d:f5:d7:8a:99:1a:39:e3
                Exponent: 65537 (0x10001)
        X509v3 extensions:
            X509v3 Basic Constraints: critical
                CA:FALSE
            X509v3 Subject Key Identifier: 
                A3:06:4D:B2:85:74:F0:2C:82:A8:30:30:A5:AC:8D:E3:42:05:F4:D9
            X509v3 Authority Key Identifier: 
                keyid:EF:64:4A:61:32:B7:3A:48:DF:68:ED:C7:34:4D:A2:53:DB:6A:49:07
                DirName:/C=FR/ST=IDF/L=Paris/O=Local NODE-OPCUA Certificate Authority/CN=NodeOPCUA-CA
                serial:C8:0D:72:93:8C:CC:B7:A5

            X509v3 Subject Alternative Name: 
                URI:urn:ROK:NodeOPCUA-Server, DNS:localhost, DNS:ROK
            Netscape Comment: 
                OpenSSL Generated Certificate
            X509v3 Key Usage: critical
                Digital Signature, Non Repudiation, Key Encipherment, Data Encipherment, Key Agreement, Certificate Sign
            X509v3 Extended Key Usage: critical
                TLS Web Server Authentication, TLS Web Client Authentication
    Signature Algorithm: sha256WithRSAEncryption
         77:8b:5f:1f:b7:11:55:34:93:86:af:24:2a:1d:39:e2:d5:27:
         8a:3e:21:61:b5:26:2c:83:77:34:93:f2:36:6c:cd:9c:69:60:
         0f:51:ab:e2:11:8f:e6:70:42:f8:f4:2d:db:7c:6e:ee:8e:dc:
         64:ae:92:4c:d5:8f:9c:f9:fb:0e:63:f9:44:79:dd:a3:45:e9:
         cd:07:fb:21:55:7a:9d:bf:b7:ce:59:10:c8:c7:0b:2d:21:9d:
         2c:ce:80:92:9b:35:e5:76:5b:09:cf:e6:ac:59:1c:68:6e:9e:
         9d:e2:d6:19:5e:02:96:ab:b7:e6:d8:f6:90:23:4f:97:a0:58:
         ff:f5:aa:ca:ed:e8:97:6c:61:ed:58:17:33:53:49:fe:9b:9f:
         52:ed:0d:c8:e0:f4:34:af:09:03:5c:74:53:3b:a8:17:81:72:
         07:df:10:59:f9:01:36:85:a7:2e:1c:ab:9f:0a:ae:00:53:a8:
         57:7a:f8:60:50:c9:24:31:12:e7:63:2b:6c:34:6e:44:98:02:
         a1:da:83:a1:91:41:17:ba:71:fe:ae:0c:ba:2c:c6:d3:77:81:
         65:f5:ee:47:52:f7:7b:34:a4:9f:08:fc:aa:1e:fb:70:c3:7f:
         df:f1:1d:ef:c1:a9:45:13:70:ca:e1:fc:cf:55:b8:ce:72:67:
         6a:2f:75:43
-----BEGIN CERTIFICATE-----
MIIEFDCCAvygAwIBAgICEAgwDQYJKoZIhvcNAQELBQAwczELMAkGA1UEBhMCRlIx
DDAKBgNVBAgTA0lERjEOMAwGA1UEBxMFUGFyaXMxLzAtBgNVBAoTJkxvY2FsIE5P
REUtT1BDVUEgQ2VydGlmaWNhdGUgQXV0aG9yaXR5MRUwEwYDVQQDEwxOb2RlT1BD
VUEtQ0EwIhgPMjAxODA1MTUxMzU5NDdaGA8yMDE5MDUxNTEzNTk0N1owNTELMAkG
A1UEBhMCRlIxEjAQBgNVBAoMCU5vZGVPUENVQTESMBAGA1UEAwwJTm9kZU9QQ1VB
MIGfMA0GCSqGSIb3DQEBAQUAA4GNADCBiQKBgQC7F62gcfGv0Wc96620VVyU/qA2
YCnUyO6CPPbMYg1zKyQVxF0KBc69dF4nl4/ZT+f5nI/PSP7eNvflpP8lxvGXc009
kvsAcQugODI77zQh6gElNK52pgldqh3RUyeHLqnz+Q9VMC5wMXrj69yiYP+XndJJ
kI1ow3k99deKmRo54wIDAQABo4IBbjCCAWowDAYDVR0TAQH/BAIwADAdBgNVHQ4E
FgQUowZNsoV08CyCqDAwpayN40IF9NkwgaUGA1UdIwSBnTCBmoAU72RKYTK3Okjf
aO3HNE2iU9tqSQehd6R1MHMxCzAJBgNVBAYTAkZSMQwwCgYDVQQIEwNJREYxDjAM
BgNVBAcTBVBhcmlzMS8wLQYDVQQKEyZMb2NhbCBOT0RFLU9QQ1VBIENlcnRpZmlj
YXRlIEF1dGhvcml0eTEVMBMGA1UEAxMMTm9kZU9QQ1VBLUNBggkAyA1yk4zMt6Uw
MwYDVR0RBCwwKoYYdXJuOlJPSzpOb2RlT1BDVUEtU2VydmVygglsb2NhbGhvc3SC
A1JPSzAsBglghkgBhvhCAQ0EHxYdT3BlblNTTCBHZW5lcmF0ZWQgQ2VydGlmaWNh
dGUwDgYDVR0PAQH/BAQDAgL8MCAGA1UdJQEB/wQWMBQGCCsGAQUFBwMBBggrBgEF
BQcDAjANBgkqhkiG9w0BAQsFAAOCAQEAd4tfH7cRVTSThq8kKh054tUnij4hYbUm
LIN3NJPyNmzNnGlgD1Gr4hGP5nBC+PQt23xu7o7cZK6STNWPnPn7DmP5RHndo0Xp
zQf7IVV6nb+3zlkQyMcLLSGdLM6Akps15XZbCc/mrFkcaG6eneLWGV4Clqu35tj2
kCNPl6BY//Wqyu3ol2xh7VgXM1NJ/pufUu0NyOD0NK8JA1x0UzuoF4FyB98QWfkB
NoWnLhyrnwquAFOoV3r4YFDJJDES52MrbDRuRJgCodqDoZFBF7px/q4MuizG03eB
ZfXuR1L3ezSknwj8qh77cMN/3/Ed78GpRRNwyuH8z1W4znJnai91Qw==
-----END CERTIFICATE-----
-----BEGIN CERTIFICATE-----
MIIE3TCCA8WgAwIBAgIJAMgNcpOMzLelMA0GCSqGSIb3DQEBCwUAMHMxCzAJBgNV
BAYTAkZSMQwwCgYDVQQIEwNJREYxDjAMBgNVBAcTBVBhcmlzMS8wLQYDVQQKEyZM
b2NhbCBOT0RFLU9QQ1VBIENlcnRpZmljYXRlIEF1dGhvcml0eTEVMBMGA1UEAxMM
Tm9kZU9QQ1VBLUNBMB4XDTE4MDUxNjEzNTk0OVoXDTI4MDUxMzEzNTk0OVowczEL
MAkGA1UEBhMCRlIxDDAKBgNVBAgTA0lERjEOMAwGA1UEBxMFUGFyaXMxLzAtBgNV
BAoTJkxvY2FsIE5PREUtT1BDVUEgQ2VydGlmaWNhdGUgQXV0aG9yaXR5MRUwEwYD
VQQDEwxOb2RlT1BDVUEtQ0EwggEiMA0GCSqGSIb3DQEBAQUAA4IBDwAwggEKAoIB
AQDIYJd2w8gwNnGFEs7eQqrgnt4M3ruKFfahBF0srsQq6HNRelGnYeO99eUGt3Vy
p+ZZ1c1+ObnNRE/xcE0p8bhLKXWQTzz9HdtzThuVRXhEnEz1nJfaW98AMe9ALdha
ojSOmqA3KYZu3LJ57t405lFDHeZdWZfNX4b3GTbBYw91M7uc3iwgVa0ddb6Go8Nl
wdoCrRVB5cojd7ZMfYgEREzCqrSSh5ATkOAjRbmA+9Oz9isrmLEJGdmWbIWhvQ2/
1QPMyW7isPVf7nqiOERhTSVh4tjD6VMBnk2ROYmCqcY1tA/YN9wWs41xXP3V9QlT
zAzXxxdjP1ojqeaBZX2/wi2/AgMBAAGjggFyMIIBbjAdBgNVHQ4EFgQU72RKYTK3
OkjfaO3HNE2iU9tqSQcwgaUGA1UdIwSBnTCBmoAU72RKYTK3OkjfaO3HNE2iU9tq
SQehd6R1MHMxCzAJBgNVBAYTAkZSMQwwCgYDVQQIEwNJREYxDjAMBgNVBAcTBVBh
cmlzMS8wLQYDVQQKEyZMb2NhbCBOT0RFLU9QQ1VBIENlcnRpZmljYXRlIEF1dGhv
cml0eTEVMBMGA1UEAxMMTm9kZU9QQ1VBLUNBggkAyA1yk4zMt6UwDAYDVR0TBAUw
AwEB/zAOBgNVHQ8BAf8EBAMCAQYwVwYJYIZIAYb4QgENBEoWSENBIENlcnRpZmlj
YXRlIGdlbmVyYXRlZCBieSBOb2RlLU9QQ1VBIENlcnRpZmljYXRlIHV0aWxpdHkg
dXNpbmcgb3BlbnNzbDAuBgNVHR8EJzAlMCOgIaAfhh1odHRwOi8vbG9jYWxob3N0
Ojg5MDAvY3JsLnBlbTANBgkqhkiG9w0BAQsFAAOCAQEAiz9UPXxad5VxkTvkIJQU
mYjbyKUmSc4VDespEmzmyaARbmp5le4KxKjzkBFdutBDUBB+G9o9nc1biY6p5ZUG
MzV4FO4VqP2e65ZV60tNvBksGbX9gjuLRnMA20r6F+rFN1xs8SolnzdJ/VDOnQPg
yZBvufyMvcPqoJzdnhYhgmik/4SdEdC7aBAQA9VLm9jyI7v8MLX1WlAJmWCXmNL0
MM2iTWkn3uydTZkcC0IyD93upvYHG1flUZPjP4VuRU5+QIsZOGmE0NC3NBiw9kr2
zL3lRxGbPLmaoVbx60MsYoudb/FzkKW0qgAwozLImzJ7TdNDqr6opbi36xzVs0go
ZQ==
-----END CERTIFICATE-----
