Certificate:
    Data:
        Version: 3 (0x2)
        Serial Number: 4109 (0x100d)
    Signature Algorithm: sha256WithRSAEncryption
        Issuer: O=NodeOPCUA, CN=NodeOPCUA
        Validity
            Not Before: May 15 13:59:47 2018 GMT
            Not After : May 15 13:59:47 2019 GMT
        Subject: O=NodeOPCUA, CN=NodeOPCUA
        Subject Public Key Info:
            Public Key Algorithm: rsaEncryption
                Public-Key: (3072 bit)
                Modulus:
                    00:c7:09:1d:8b:6a:86:44:53:65:e4:98:d9:74:5c:
                    6c:58:97:2d:97:68:ee:5c:50:e8:83:60:41:75:61:
                    7f:71:11:f5:ef:02:1f:58:e8:66:00:8c:29:d9:d3:
                    52:b9:c8:a0:a8:27:16:65:f5:e6:e6:2c:71:13:24:
                    af:e3:08:5b:33:2b:79:37:b9:90:0a:a0:24:f8:97:
                    81:a2:bb:bb:dc:15:12:94:67:34:ee:06:08:04:6a:
                    8b:68:d6:3a:63:39:9d:cc:32:5b:12:1a:04:6d:e9:
                    a9:49:4f:11:38:2c:11:8a:49:2f:e0:4b:01:7b:73:
                    5c:51:f2:98:c2:54:4a:02:b7:e1:5f:e7:ef:35:37:
                    2c:20:24:54:d5:dd:c1:69:92:9f:ce:f1:55:b5:28:
                    f2:a0:0e:4d:af:79:ff:7b:e0:db:72:d3:4f:5d:26:
                    0d:d9:28:fe:f0:44:23:bd:30:b7:4b:e7:0e:88:2e:
                    bd:9d:78:81:3d:ec:c5:3a:35:cd:ee:59:72:6c:49:
                    75:13:59:64:9c:c4:5e:73:d0:f0:37:ce:33:55:17:
                    7a:a2:78:1e:84:19:fb:14:d2:e5:2c:a2:03:c9:60:
                    58:57:ee:24:40:10:b1:21:4d:12:29:e9:3e:61:51:
                    6a:27:30:5f:cb:e6:90:7b:77:40:6e:93:b5:27:58:
                    6a:11:02:38:fd:7d:1c:d8:1b:9e:bd:54:c1:bf:17:
                    72:f2:7a:90:2f:24:ef:65:f6:e3:45:d1:45:31:05:
                    18:19:8e:d7:62:d5:a1:15:cf:76:81:d4:2f:46:75:
                    9d:76:d3:9a:c2:c2:a1:6e:72:eb:4b:9e:fa:17:48:
                    07:81:8e:5b:c5:bf:f2:5e:df:91:36:62:80:cf:34:
                    e6:a5:5e:b5:37:c7:13:30:79:dd:ff:d1:5e:9d:16:
                    ad:c2:08:a2:75:f4:b7:d8:ce:05:58:6a:96:6a:74:
                    58:e6:89:46:c7:69:c5:f8:6b:03:21:43:28:99:72:
                    9d:2d:3c:c6:2f:90:04:8c:f4:03
                Exponent: 65537 (0x10001)
        X509v3 extensions:
            X509v3 Basic Constraints: critical
                CA:FALSE
            X509v3 Subject Key Identifier: 
                B7:13:AD:4F:52:4F:51:C2:5B:68:0A:27:39:46:45:8F:36:A2:9D:48
            X509v3 Authority Key Identifier: 
                keyid:B7:13:AD:4F:52:4F:51:C2:5B:68:0A:27:39:46:45:8F:36:A2:9D:48
                DirName:/O=NodeOPCUA/CN=NodeOPCUA
                serial:10:0D

            X509v3 Subject Alternative Name: 
                URI:urn:ROK:NodeOPCUA-Server, DNS:localhost, DNS:ROK
            Netscape Comment: 
                OpenSSL Generated Certificate
            X509v3 Key Usage: critical
                Digital Signature, Non Repudiation, Key Encipherment, Data Encipherment, Key Agreement, Certificate Sign
            X509v3 Extended Key Usage: critical
                TLS Web Server Authentication, TLS Web Client Authentication
    Signature Algorithm: sha256WithRSAEncryption
         40:39:86:77:6b:9a:99:ea:94:96:3b:de:9f:0f:e3:be:9a:f2:
         83:2f:c5:fc:00:76:e9:e3:3a:a3:4f:cf:50:05:ba:99:19:ff:
         4e:3e:33:dd:2e:5d:b0:45:a9:7a:aa:60:a1:69:c2:fd:57:60:
         60:ab:75:26:fc:e2:c0:48:a5:b5:e0:65:02:b4:e4:65:45:62:
         62:c3:e6:77:c2:19:3f:66:f1:47:0a:98:90:44:36:5e:c1:a9:
         b0:f7:0c:c1:9f:4b:42:17:0a:0a:d5:0f:a8:57:5a:f6:1b:6b:
         03:e8:10:35:18:57:f5:8a:aa:8d:7d:8c:db:7d:86:13:97:7c:
         46:11:28:31:1b:a4:ac:d2:ca:18:1c:d0:4b:a7:35:79:99:5d:
         fc:94:f9:c0:50:e4:db:59:93:8b:c7:6e:0a:7b:69:b7:f9:ec:
         6f:e2:77:a6:34:33:c9:cc:a9:92:a9:6e:9c:68:cc:2a:d5:34:
         c3:9c:d5:c1:5e:35:ff:20:9c:d9:ce:4f:a8:61:c8:ac:4f:82:
         08:9e:6c:28:b9:cf:86:d2:dd:48:60:b9:df:75:3c:d6:e5:61:
         7e:4a:3e:18:98:39:fb:09:68:6f:13:78:d3:63:06:84:3e:bf:
         f5:b6:27:72:22:b3:0d:fa:c3:7d:9f:2b:77:da:aa:12:fe:45:
         29:dd:14:98:c3:f4:65:a1:16:91:b9:c3:4c:78:15:5b:7c:af:
         d1:59:73:c5:0f:a0:71:81:51:b7:8b:85:33:28:3f:fe:33:bd:
         d6:da:c7:6a:98:08:32:f0:e6:10:9b:41:24:f4:2a:b6:6a:52:
         ec:83:f4:bd:4a:f9:ff:9a:62:4d:98:4b:8b:92:94:db:2f:2b:
         98:b2:13:0b:14:95:c9:b3:39:7b:ea:0d:00:01:ac:3a:46:0b:
         a1:a7:19:18:5b:63:02:1c:f5:bf:e1:b7:16:59:57:30:1a:5d:
         6d:2a:1c:4c:14:ed:02:3c:e3:2c:de:6a:22:77:80:c6:e4:37:
         6b:c8:b7:ab:48:74
-----BEGIN CERTIFICATE-----
MIIE6zCCA1OgAwIBAgICEA0wDQYJKoZIhvcNAQELBQAwKDESMBAGA1UEChMJTm9k
ZU9QQ1VBMRIwEAYDVQQDEwlOb2RlT1BDVUEwIhgPMjAxODA1MTUxMzU5NDdaGA8y
MDE5MDUxNTEzNTk0N1owKDESMBAGA1UEChMJTm9kZU9QQ1VBMRIwEAYDVQQDEwlO
b2RlT1BDVUEwggGiMA0GCSqGSIb3DQEBAQUAA4IBjwAwggGKAoIBgQDHCR2LaoZE
U2XkmNl0XGxYly2XaO5cUOiDYEF1YX9xEfXvAh9Y6GYAjCnZ01K5yKCoJxZl9ebm
LHETJK/jCFszK3k3uZAKoCT4l4Giu7vcFRKUZzTuBggEaoto1jpjOZ3MMlsSGgRt
6alJTxE4LBGKSS/gSwF7c1xR8pjCVEoCt+Ff5+81NywgJFTV3cFpkp/O8VW1KPKg
Dk2vef974Nty009dJg3ZKP7wRCO9MLdL5w6ILr2deIE97MU6Nc3uWXJsSXUTWWSc
xF5z0PA3zjNVF3qieB6EGfsU0uUsogPJYFhX7iRAELEhTRIp6T5hUWonMF/L5pB7
d0Buk7UnWGoRAjj9fRzYG569VMG/F3LyepAvJO9l9uNF0UUxBRgZjtdi1aEVz3aB
1C9GdZ1205rCwqFucutLnvoXSAeBjlvFv/Je35E2YoDPNOalXrU3xxMwed3/0V6d
Fq3CCKJ19LfYzgVYapZqdFjmiUbHacX4awMhQyiZcp0tPMYvkASM9AMCAwEAAaOC
ARkwggEVMAwGA1UdEwEB/wQCMAAwHQYDVR0OBBYEFLcTrU9ST1HCW2gKJzlGRY82
op1IMFEGA1UdIwRKMEiAFLcTrU9ST1HCW2gKJzlGRY82op1IoSykKjAoMRIwEAYD
VQQKEwlOb2RlT1BDVUExEjAQBgNVBAMTCU5vZGVPUENVQYICEA0wMwYDVR0RBCww
KoYYdXJuOlJPSzpOb2RlT1BDVUEtU2VydmVygglsb2NhbGhvc3SCA1JPSzAsBglg
hkgBhvhCAQ0EHxYdT3BlblNTTCBHZW5lcmF0ZWQgQ2VydGlmaWNhdGUwDgYDVR0P
AQH/BAQDAgL8MCAGA1UdJQEB/wQWMBQGCCsGAQUFBwMBBggrBgEFBQcDAjANBgkq
hkiG9w0BAQsFAAOCAYEAQDmGd2uameqUljvenw/jvprygy/F/AB26eM6o0/PUAW6
mRn/Tj4z3S5dsEWpeqpgoWnC/VdgYKt1JvziwEilteBlArTkZUViYsPmd8IZP2bx
RwqYkEQ2XsGpsPcMwZ9LQhcKCtUPqFda9htrA+gQNRhX9YqqjX2M232GE5d8RhEo
MRukrNLKGBzQS6c1eZld/JT5wFDk21mTi8duCntpt/nsb+J3pjQzycypkqlunGjM
KtU0w5zVwV41/yCc2c5PqGHIrE+CCJ5sKLnPhtLdSGC533U81uVhfko+GJg5+wlo
bxN402MGhD6/9bYnciKzDfrDfZ8rd9qqEv5FKd0UmMP0ZaEWkbnDTHgVW3yv0Vlz
xQ+gcYFRt4uFMyg//jO91trHapgIMvDmEJtBJPQqtmpS7IP0vUr5/5piTZhLi5KU
2y8rmLITCxSVybM5e+oNAAGsOkYLoacZGFtjAhz1v+G3FllXMBpdbSocTBTtAjzj
LN5qIneAxuQ3a8i3q0h0
-----END CERTIFICATE-----
