Certificate Request:
    Data:
        Version: 0 (0x0)
        Subject: C=FR, O=NodeOPCUA, CN=NodeOPCUA
        Subject Public Key Info:
            Public Key Algorithm: rsaEncryption
                Public-Key: (2048 bit)
                Modulus:
                    00:d7:f1:64:00:48:ae:75:7d:54:75:2e:a1:34:74:
                    40:ee:c3:a8:eb:48:89:21:f6:df:cc:e0:ca:b2:fa:
                    7f:95:f4:8e:da:3a:1c:8f:d9:b1:00:a0:12:be:21:
                    e1:11:c6:f5:2a:7a:b6:7f:e7:c8:43:a8:e0:f0:1a:
                    a0:92:44:8b:91:e4:ad:c0:f5:6e:c9:b1:6a:95:0a:
                    57:c0:e5:62:a9:5e:51:03:6d:92:34:0e:b0:ac:f4:
                    b0:d4:51:56:d2:89:b9:9d:87:52:f7:0c:31:f4:f7:
                    42:0f:9a:3e:8e:db:7d:2b:03:12:22:f5:f5:6e:d9:
                    7e:57:16:27:e6:4b:a8:c6:eb:ea:80:e8:5e:5d:95:
                    b8:48:5b:e6:33:fb:8a:8f:e6:05:20:29:14:2a:ac:
                    d0:e1:9b:0c:09:8a:11:9e:fd:04:33:09:fc:da:6c:
                    f1:1e:3f:0c:36:0d:2e:57:27:cf:ac:d2:43:38:66:
                    77:00:5d:54:3b:df:24:74:85:99:b4:2a:43:d8:68:
                    f0:50:de:bf:e2:ef:fd:22:8d:07:e1:43:aa:5c:c6:
                    b3:c5:99:6d:6e:aa:3c:ee:9b:f1:49:38:f7:55:8c:
                    22:40:70:30:80:1b:74:5a:96:fe:39:94:af:85:44:
                    1b:2a:f6:46:7c:b8:00:10:da:3d:ea:32:5c:6c:fe:
                    fb:63
                Exponent: 65537 (0x10001)
        Attributes:
        Requested Extensions:
            X509v3 Basic Constraints: 
                CA:FALSE
            X509v3 Key Usage: critical
                Certificate Sign, CRL Sign
            X509v3 Subject Alternative Name: 
                URI:undefined
    Signature Algorithm: sha256WithRSAEncryption
         9b:71:93:09:d9:c2:f9:1d:ed:30:e3:18:72:35:52:1e:31:41:
         cd:16:d2:ce:71:a0:5b:f0:b8:78:f5:d7:cd:92:61:39:bc:02:
         01:fd:a8:29:35:38:6b:3b:22:4b:c8:09:0c:20:10:55:f5:21:
         11:c9:2f:6c:96:b6:9d:19:08:7c:a6:33:55:17:de:09:df:2b:
         3b:bc:65:71:88:e6:40:0c:51:8a:24:f9:40:59:57:3d:9a:9c:
         d1:e5:84:a0:dc:85:b5:5d:4c:73:95:1d:2d:57:5e:07:92:d3:
         12:2b:c5:a4:3a:7f:da:8e:00:5c:58:86:53:57:54:b5:2d:ea:
         d9:80:95:12:0b:b7:27:10:ef:53:88:62:b8:4d:55:ab:d7:22:
         d6:ac:04:16:37:7a:b6:a3:1a:ae:5a:07:0d:26:1b:bd:98:95:
         5d:4c:e3:81:d5:b3:ca:7a:63:07:92:be:22:25:c9:97:c6:9f:
         91:38:06:0f:7a:30:ce:75:ec:14:6d:b8:fc:a5:2f:75:99:e7:
         c3:44:44:c0:4b:8a:1a:81:9e:21:bd:ed:fe:e4:43:3d:fd:09:
         62:b9:8a:ae:66:8c:7a:2a:07:c5:a3:16:87:4d:6b:c0:92:95:
         96:84:52:c2:ac:85:93:a7:b3:ff:e7:32:a0:57:9a:55:23:bf:
         68:d7:f7:48
-----BEGIN CERTIFICATE REQUEST-----
MIICvDCCAaQCAQAwNTELMAkGA1UEBhMCRlIxEjAQBgNVBAoMCU5vZGVPUENVQTES
MBAGA1UEAwwJTm9kZU9QQ1VBMIIBIjANBgkqhkiG9w0BAQEFAAOCAQ8AMIIBCgKC
AQEA1/FkAEiudX1UdS6hNHRA7sOo60iJIfbfzODKsvp/lfSO2jocj9mxAKASviHh
Ecb1Knq2f+fIQ6jg8BqgkkSLkeStwPVuybFqlQpXwOViqV5RA22SNA6wrPSw1FFW
0om5nYdS9wwx9PdCD5o+jtt9KwMSIvX1btl+VxYn5kuoxuvqgOheXZW4SFvmM/uK
j+YFICkUKqzQ4ZsMCYoRnv0EMwn82mzxHj8MNg0uVyfPrNJDOGZ3AF1UO98kdIWZ
tCpD2GjwUN6/4u/9Io0H4UOqXMazxZltbqo87pvxSTj3VYwiQHAwgBt0Wpb+OZSv
hUQbKvZGfLgAENo96jJcbP77YwIDAQABoEIwQAYJKoZIhvcNAQkOMTMwMTAJBgNV
HRMEAjAAMA4GA1UdDwEB/wQEAwIBBjAUBgNVHREEDTALhgl1bmRlZmluZWQwDQYJ
KoZIhvcNAQELBQADggEBAJtxkwnZwvkd7TDjGHI1Uh4xQc0W0s5xoFvwuHj1182S
YTm8AgH9qCk1OGs7IkvICQwgEFX1IRHJL2yWtp0ZCHymM1UX3gnfKzu8ZXGI5kAM
UYok+UBZVz2anNHlhKDchbVdTHOVHS1XXgeS0xIrxaQ6f9qOAFxYhlNXVLUt6tmA
lRILtycQ71OIYrhNVavXItasBBY3erajGq5aBw0mG72YlV1M44HVs8p6YweSviIl
yZfGn5E4Bg96MM517BRtuPylL3WZ58NERMBLihqBniG97f7kQz39CWK5iq5mjHoq
B8WjFodNa8CSlZaEUsKshZOns//nMqBXmlUjv2jX90g=
-----END CERTIFICATE REQUEST-----
