Certificate Request:
    Data:
        Version: 0 (0x0)
        Subject: C=FR, O=NodeOPCUA, CN=NodeOPCUA
        Subject Public Key Info:
            Public Key Algorithm: rsaEncryption
                Public-Key: (3072 bit)
                Modulus:
                    00:c7:09:1d:8b:6a:86:44:53:65:e4:98:d9:74:5c:
                    6c:58:97:2d:97:68:ee:5c:50:e8:83:60:41:75:61:
                    7f:71:11:f5:ef:02:1f:58:e8:66:00:8c:29:d9:d3:
                    52:b9:c8:a0:a8:27:16:65:f5:e6:e6:2c:71:13:24:
                    af:e3:08:5b:33:2b:79:37:b9:90:0a:a0:24:f8:97:
                    81:a2:bb:bb:dc:15:12:94:67:34:ee:06:08:04:6a:
                    8b:68:d6:3a:63:39:9d:cc:32:5b:12:1a:04:6d:e9:
                    a9:49:4f:11:38:2c:11:8a:49:2f:e0:4b:01:7b:73:
                    5c:51:f2:98:c2:54:4a:02:b7:e1:5f:e7:ef:35:37:
                    2c:20:24:54:d5:dd:c1:69:92:9f:ce:f1:55:b5:28:
                    f2:a0:0e:4d:af:79:ff:7b:e0:db:72:d3:4f:5d:26:
                    0d:d9:28:fe:f0:44:23:bd:30:b7:4b:e7:0e:88:2e:
                    bd:9d:78:81:3d:ec:c5:3a:35:cd:ee:59:72:6c:49:
                    75:13:59:64:9c:c4:5e:73:d0:f0:37:ce:33:55:17:
                    7a:a2:78:1e:84:19:fb:14:d2:e5:2c:a2:03:c9:60:
                    58:57:ee:24:40:10:b1:21:4d:12:29:e9:3e:61:51:
                    6a:27:30:5f:cb:e6:90:7b:77:40:6e:93:b5:27:58:
                    6a:11:02:38:fd:7d:1c:d8:1b:9e:bd:54:c1:bf:17:
                    72:f2:7a:90:2f:24:ef:65:f6:e3:45:d1:45:31:05:
                    18:19:8e:d7:62:d5:a1:15:cf:76:81:d4:2f:46:75:
                    9d:76:d3:9a:c2:c2:a1:6e:72:eb:4b:9e:fa:17:48:
                    07:81:8e:5b:c5:bf:f2:5e:df:91:36:62:80:cf:34:
                    e6:a5:5e:b5:37:c7:13:30:79:dd:ff:d1:5e:9d:16:
                    ad:c2:08:a2:75:f4:b7:d8:ce:05:58:6a:96:6a:74:
                    58:e6:89:46:c7:69:c5:f8:6b:03:21:43:28:99:72:
                    9d:2d:3c:c6:2f:90:04:8c:f4:03
                Exponent: 65537 (0x10001)
        Attributes:
        Requested Extensions:
            X509v3 Basic Constraints: 
                CA:FALSE
            X509v3 Key Usage: critical
                Certificate Sign, CRL Sign
            X509v3 Subject Alternative Name: 
                URI:undefined
    Signature Algorithm: sha256WithRSAEncryption
         53:fa:2a:ec:e4:8a:71:5c:1e:35:77:4d:f2:cf:86:79:8f:df:
         a4:22:3f:d0:19:cf:38:5a:40:67:cf:7a:48:16:59:72:89:7e:
         c6:cf:a8:e6:36:7e:bd:f1:a9:31:e2:df:ea:51:bf:3a:05:df:
         58:37:9f:53:fa:0e:6f:36:c0:30:9a:cb:b1:79:19:f5:6d:1b:
         52:3d:44:49:d2:b0:2f:f7:b3:1e:0e:ee:e7:7b:fa:18:74:19:
         6a:1c:9b:bd:a2:f6:76:eb:dc:3f:29:50:38:be:71:d3:a0:f9:
         37:b7:8b:54:3c:2a:4b:9f:8a:4f:69:f5:4d:42:2b:01:cf:f3:
         22:d9:eb:b3:74:71:97:3a:40:f4:26:d5:d5:28:a0:4f:65:a5:
         8a:db:2b:22:69:5c:b6:03:f6:05:53:38:da:fc:b6:a5:55:92:
         d8:c6:42:ea:f1:8c:6d:e3:10:c6:70:a2:38:6f:6c:0b:85:80:
         d2:51:2c:1d:7d:a7:9c:08:88:25:40:c0:96:45:40:27:2d:69:
         f7:ea:34:57:87:f1:7d:c5:2f:75:bc:4a:68:46:ea:29:ff:d1:
         17:0e:59:f0:de:7a:67:bc:2b:0d:b8:70:ed:0f:cc:8c:76:9e:
         c0:ae:bc:e4:6b:79:f2:08:0a:87:02:33:b0:6b:82:c1:26:76:
         72:a5:4f:8c:29:0a:30:48:41:bf:09:38:5c:b7:25:d7:62:bb:
         c8:ac:36:1b:60:cf:07:18:23:9b:6d:4a:81:45:ce:19:d5:94:
         6e:ef:a0:51:0d:96:d0:32:b2:bd:3b:3a:28:db:0d:2a:6a:03:
         ec:ba:44:a4:ea:3d:03:fd:fc:16:d3:df:c6:ba:4b:4c:b1:54:
         34:25:12:24:8c:6c:05:99:bf:ce:40:ce:0c:76:18:54:3a:07:
         de:34:21:4a:1c:e3:18:06:25:2e:0b:32:81:71:3f:5b:66:24:
         e9:79:a2:33:54:3a:9e:17:cc:9b:6c:15:fa:2d:af:d2:0f:cf:
         9a:76:6f:d3:a8:b2
-----BEGIN CERTIFICATE REQUEST-----
MIIDvDCCAiQCAQAwNTELMAkGA1UEBhMCRlIxEjAQBgNVBAoMCU5vZGVPUENVQTES
MBAGA1UEAwwJTm9kZU9QQ1VBMIIBojANBgkqhkiG9w0BAQEFAAOCAY8AMIIBigKC
AYEAxwkdi2qGRFNl5JjZdFxsWJctl2juXFDog2BBdWF/cRH17wIfWOhmAIwp2dNS
ucigqCcWZfXm5ixxEySv4whbMyt5N7mQCqAk+JeBoru73BUSlGc07gYIBGqLaNY6
YzmdzDJbEhoEbempSU8ROCwRikkv4EsBe3NcUfKYwlRKArfhX+fvNTcsICRU1d3B
aZKfzvFVtSjyoA5Nr3n/e+DbctNPXSYN2Sj+8EQjvTC3S+cOiC69nXiBPezFOjXN
7llybEl1E1lknMRec9DwN84zVRd6ongehBn7FNLlLKIDyWBYV+4kQBCxIU0SKek+
YVFqJzBfy+aQe3dAbpO1J1hqEQI4/X0c2BuevVTBvxdy8nqQLyTvZfbjRdFFMQUY
GY7XYtWhFc92gdQvRnWddtOawsKhbnLrS576F0gHgY5bxb/yXt+RNmKAzzTmpV61
N8cTMHnd/9FenRatwgiidfS32M4FWGqWanRY5olGx2nF+GsDIUMomXKdLTzGL5AE
jPQDAgMBAAGgQjBABgkqhkiG9w0BCQ4xMzAxMAkGA1UdEwQCMAAwDgYDVR0PAQH/
BAQDAgEGMBQGA1UdEQQNMAuGCXVuZGVmaW5lZDANBgkqhkiG9w0BAQsFAAOCAYEA
U/oq7OSKcVweNXdN8s+GeY/fpCI/0BnPOFpAZ896SBZZcol+xs+o5jZ+vfGpMeLf
6lG/OgXfWDefU/oObzbAMJrLsXkZ9W0bUj1ESdKwL/ezHg7u53v6GHQZahybvaL2
duvcPylQOL5x06D5N7eLVDwqS5+KT2n1TUIrAc/zItnrs3RxlzpA9CbV1SigT2Wl
itsrImlctgP2BVM42vy2pVWS2MZC6vGMbeMQxnCiOG9sC4WA0lEsHX2nnAiIJUDA
lkVAJy1p9+o0V4fxfcUvdbxKaEbqKf/RFw5Z8N56Z7wrDbhw7Q/MjHaewK685Gt5
8ggKhwIzsGuCwSZ2cqVPjCkKMEhBvwk4XLcl12K7yKw2G2DPBxgjm21KgUXOGdWU
bu+gUQ2W0DKyvTs6KNsNKmoD7LpEpOo9A/38FtPfxrpLTLFUNCUSJIxsBZm/zkDO
DHYYVDoH3jQhShzjGAYlLgsygXE/W2Yk6XmiM1Q6nhfMm2wV+i2v0g/PmnZv06iy
-----END CERTIFICATE REQUEST-----
