Certificate Request:
    Data:
        Version: 0 (0x0)
        Subject: C=FR, O=NodeOPCUA, CN=NodeOPCUA
        Subject Public Key Info:
            Public Key Algorithm: rsaEncryption
                Public-Key: (4096 bit)
                Modulus:
                    00:ca:75:63:51:61:1e:af:fa:53:b0:26:01:81:d3:
                    be:42:bc:2b:97:0d:e2:48:f3:be:3c:13:22:75:51:
                    f7:cf:18:da:4f:ad:f8:8f:a3:7e:e5:80:dd:31:02:
                    eb:8e:a9:bc:bd:41:71:ac:fb:83:30:94:97:02:e6:
                    2a:01:c8:20:27:5d:0e:2d:f3:ec:1b:af:20:83:73:
                    da:d4:d9:fe:f6:d3:37:85:16:31:9e:a1:fc:78:23:
                    ce:59:a6:61:96:a2:d2:37:b0:4d:10:1a:6f:12:55:
                    16:aa:46:89:ff:09:82:54:d1:f0:6a:b0:4b:43:3d:
                    dd:cd:69:36:e6:20:23:4b:04:c0:de:a7:bb:89:8c:
                    7d:47:16:5a:9a:da:3e:95:29:a5:96:5e:e9:28:44:
                    8c:f2:0f:69:22:1c:6a:3d:c5:c8:8c:b4:8a:06:e7:
                    59:34:0d:8a:18:71:2b:cd:5c:e7:b4:a4:3a:a4:63:
                    90:2c:a7:79:9e:3a:95:89:66:ad:fb:70:5f:16:7f:
                    26:bc:57:ac:67:c2:7b:40:26:b3:3f:90:31:01:d8:
                    13:0b:a6:b9:f9:72:5a:e0:ce:76:b5:61:66:a9:71:
                    a4:8a:24:8d:70:4d:2f:3c:b0:21:f2:0d:2c:0a:f6:
                    70:01:fc:48:36:92:79:ae:31:3e:7a:e5:73:ea:23:
                    d3:d3:8a:d9:64:12:2b:f5:f7:b0:2c:a6:87:e6:bf:
                    83:e7:2f:f9:1e:4c:93:65:47:f2:ae:d1:61:bb:7c:
                    51:e4:17:7b:c6:1a:f9:21:54:50:06:36:36:06:b2:
                    88:bd:46:75:2b:27:df:a6:4b:89:d4:11:07:66:7a:
                    7f:44:23:3b:1f:13:4f:66:af:04:d0:1b:b7:55:67:
                    1b:04:ef:6b:fc:a8:f4:9d:69:e7:af:ec:f2:c2:bb:
                    3f:f0:70:82:ef:50:3f:77:4b:3c:dc:ec:b2:ed:90:
                    ef:67:bc:c5:a3:3c:8b:77:ab:e0:ac:7d:d6:3e:e3:
                    79:8b:f8:5b:97:88:45:17:28:3e:3d:22:ae:8b:3f:
                    94:4f:05:d3:f1:77:9c:be:49:a1:dd:53:e0:f6:46:
                    9c:8c:1c:eb:a0:5b:4f:fc:a5:45:34:e4:40:2a:3f:
                    d9:3c:0c:2a:f7:0a:ac:cf:18:2f:94:04:5d:d4:7b:
                    c3:bf:5b:a4:81:cb:39:d9:e6:64:66:6a:6a:52:d5:
                    f1:f8:9d:27:cd:c4:08:32:74:5c:37:9f:66:64:f4:
                    b6:b2:ea:69:6c:c4:60:1f:3f:bf:9e:8e:da:3c:aa:
                    15:06:05:f5:4d:86:d9:71:66:52:6a:95:0b:ab:df:
                    d9:af:30:9f:f1:a2:43:5d:cb:dc:c7:a5:d3:4b:67:
                    c3:78:79
                Exponent: 65537 (0x10001)
        Attributes:
        Requested Extensions:
            X509v3 Basic Constraints: 
                CA:FALSE
            X509v3 Key Usage: critical
                Certificate Sign, CRL Sign
            X509v3 Subject Alternative Name: 
                URI:undefined
    Signature Algorithm: sha256WithRSAEncryption
         64:f8:b3:e2:57:31:6f:ac:32:89:2c:1c:ba:8c:70:92:7e:d3:
         f9:55:0d:d0:96:f1:18:e5:d2:e6:06:cb:eb:dd:55:b4:99:05:
         0e:18:65:45:ce:87:08:2e:5f:4f:a7:f1:61:28:38:54:b1:73:
         f5:b9:7d:5a:f0:53:08:a1:0a:06:9f:e3:6b:4d:4b:a2:6a:0f:
         fd:ec:1a:e3:e8:d6:42:f2:9a:ee:09:09:91:48:f2:5b:cc:40:
         4c:ed:26:6a:26:e0:94:b0:3b:aa:c9:70:db:66:62:04:19:56:
         ec:66:ee:b7:80:ea:36:70:42:99:8a:85:d1:f0:d3:c2:b0:9c:
         ab:ee:ce:f0:59:2c:c0:23:64:06:f6:00:af:a2:59:2b:a5:88:
         d6:87:a9:a6:9b:bc:7d:08:2a:58:15:c5:86:10:d0:0a:c7:4b:
         a8:74:87:7f:1f:be:17:93:c7:e2:62:c7:a2:a6:c9:f8:86:7c:
         6b:60:24:01:b6:c8:5d:a1:3b:88:6e:90:e1:03:8f:5e:d4:85:
         7b:a8:ed:bd:36:4a:08:57:03:d5:f5:e8:36:a0:af:11:dc:66:
         56:ec:dc:24:67:f0:a6:f2:ba:9b:ed:7d:9f:72:79:19:ef:63:
         03:01:1d:8f:57:11:1c:d4:3b:f7:86:11:58:49:fd:22:8e:55:
         ea:9d:98:4c:66:db:17:d1:3d:84:d6:5d:59:c5:91:61:67:b5:
         de:e2:18:db:8c:b8:38:6d:35:13:f3:18:d9:0d:33:62:3f:77:
         9a:64:4e:73:e8:c5:71:8e:f6:b4:d4:e0:c8:0f:64:5d:ce:f5:
         e1:f3:25:26:bc:77:29:4c:a1:bb:02:31:55:c0:ec:73:28:b1:
         96:c4:b8:1e:b0:e8:d1:a8:b3:d4:41:39:01:1a:4d:95:f0:94:
         9e:28:d0:69:0f:a9:b8:bb:f0:96:5a:4c:03:85:23:dd:b3:64:
         4d:b8:64:9e:53:d8:cd:6b:ff:f1:93:6c:ac:38:60:a0:79:50:
         6a:9c:34:fc:3f:21:65:ec:43:a4:07:40:80:ad:32:d9:24:66:
         bb:f4:17:88:71:be:73:12:f2:40:18:ea:40:95:33:8f:3d:b4:
         21:e4:37:a9:e9:45:60:be:cb:e8:cb:f1:6d:4e:f5:1d:e2:b0:
         e0:b1:e9:9a:b5:de:8c:69:93:25:25:4e:b2:8e:9d:ec:01:6c:
         ed:97:02:a8:a0:06:7b:24:58:47:79:32:0d:b7:0e:ac:7a:24:
         07:8d:14:92:d2:a4:8f:31:15:7b:c6:58:a6:e0:df:22:50:5a:
         7d:cf:e3:7d:00:6b:93:26:87:f3:e3:03:8e:22:0e:b1:e5:d2:
         2d:da:a2:e8:b0:21:9c:0d
-----BEGIN CERTIFICATE REQUEST-----
MIIEvDCCAqQCAQAwNTELMAkGA1UEBhMCRlIxEjAQBgNVBAoMCU5vZGVPUENVQTES
MBAGA1UEAwwJTm9kZU9QQ1VBMIICIjANBgkqhkiG9w0BAQEFAAOCAg8AMIICCgKC
AgEAynVjUWEer/pTsCYBgdO+Qrwrlw3iSPO+PBMidVH3zxjaT634j6N+5YDdMQLr
jqm8vUFxrPuDMJSXAuYqAcggJ10OLfPsG68gg3Pa1Nn+9tM3hRYxnqH8eCPOWaZh
lqLSN7BNEBpvElUWqkaJ/wmCVNHwarBLQz3dzWk25iAjSwTA3qe7iYx9RxZamto+
lSmlll7pKESM8g9pIhxqPcXIjLSKBudZNA2KGHErzVzntKQ6pGOQLKd5njqViWat
+3BfFn8mvFesZ8J7QCazP5AxAdgTC6a5+XJa4M52tWFmqXGkiiSNcE0vPLAh8g0s
CvZwAfxINpJ5rjE+euVz6iPT04rZZBIr9fewLKaH5r+D5y/5HkyTZUfyrtFhu3xR
5Bd7xhr5IVRQBjY2BrKIvUZ1KyffpkuJ1BEHZnp/RCM7HxNPZq8E0Bu3VWcbBO9r
/Kj0nWnnr+zywrs/8HCC71A/d0s83Oyy7ZDvZ7zFozyLd6vgrH3WPuN5i/hbl4hF
Fyg+PSKuiz+UTwXT8Xecvkmh3VPg9kacjBzroFtP/KVFNORAKj/ZPAwq9wqszxgv
lARd1HvDv1ukgcs52eZkZmpqUtXx+J0nzcQIMnRcN59mZPS2suppbMRgHz+/no7a
PKoVBgX1TYbZcWZSapULq9/ZrzCf8aJDXcvcx6XTS2fDeHkCAwEAAaBCMEAGCSqG
SIb3DQEJDjEzMDEwCQYDVR0TBAIwADAOBgNVHQ8BAf8EBAMCAQYwFAYDVR0RBA0w
C4YJdW5kZWZpbmVkMA0GCSqGSIb3DQEBCwUAA4ICAQBk+LPiVzFvrDKJLBy6jHCS
ftP5VQ3QlvEY5dLmBsvr3VW0mQUOGGVFzocILl9Pp/FhKDhUsXP1uX1a8FMIoQoG
n+NrTUuiag/97Brj6NZC8pruCQmRSPJbzEBM7SZqJuCUsDuqyXDbZmIEGVbsZu63
gOo2cEKZioXR8NPCsJyr7s7wWSzAI2QG9gCvolkrpYjWh6mmm7x9CCpYFcWGENAK
x0uodId/H74Xk8fiYseipsn4hnxrYCQBtshdoTuIbpDhA49e1IV7qO29NkoIVwPV
9eg2oK8R3GZW7NwkZ/Cm8rqb7X2fcnkZ72MDAR2PVxEc1Dv3hhFYSf0ijlXqnZhM
ZtsX0T2E1l1ZxZFhZ7Xe4hjbjLg4bTUT8xjZDTNiP3eaZE5z6MVxjva01ODID2Rd
zvXh8yUmvHcpTKG7AjFVwOxzKLGWxLgesOjRqLPUQTkBGk2V8JSeKNBpD6m4u/CW
WkwDhSPds2RNuGSeU9jNa//xk2ysOGCgeVBqnDT8PyFl7EOkB0CArTLZJGa79BeI
cb5zEvJAGOpAlTOPPbQh5Dep6UVgvsvoy/FtTvUd4rDgsematd6MaZMlJU6yjp3s
AWztlwKooAZ7JFhHeTINtw6seiQHjRSS0qSPMRV7xlim4N8iUFp9z+N9AGuTJofz
4wOOIg6x5dIt2qLosCGcDQ==
-----END CERTIFICATE REQUEST-----
