Certificate:
    Data:
        Version: 3 (0x2)
        Serial Number: 4108 (0x100c)
    Signature Algorithm: sha256WithRSAEncryption
        Issuer: C=FR, ST=IDF, L=Paris, O=Local NODE-OPCUA Certificate Authority, CN=NodeOPCUA-CA
        Validity
            Not Before: May 15 13:59:47 2018 GMT
            Not After : May 15 13:59:47 2019 GMT
        Subject: C=FR, O=NodeOPCUA, CN=NodeOPCUA
        Subject Public Key Info:
            Public Key Algorithm: rsaEncryption
                Public-Key: (3072 bit)
                Modulus:
                    00:c7:09:1d:8b:6a:86:44:53:65:e4:98:d9:74:5c:
                    6c:58:97:2d:97:68:ee:5c:50:e8:83:60:41:75:61:
                    7f:71:11:f5:ef:02:1f:58:e8:66:00:8c:29:d9:d3:
                    52:b9:c8:a0:a8:27:16:65:f5:e6:e6:2c:71:13:24:
                    af:e3:08:5b:33:2b:79:37:b9:90:0a:a0:24:f8:97:
                    81:a2:bb:bb:dc:15:12:94:67:34:ee:06:08:04:6a:
                    8b:68:d6:3a:63:39:9d:cc:32:5b:12:1a:04:6d:e9:
                    a9:49:4f:11:38:2c:11:8a:49:2f:e0:4b:01:7b:73:
                    5c:51:f2:98:c2:54:4a:02:b7:e1:5f:e7:ef:35:37:
                    2c:20:24:54:d5:dd:c1:69:92:9f:ce:f1:55:b5:28:
                    f2:a0:0e:4d:af:79:ff:7b:e0:db:72:d3:4f:5d:26:
                    0d:d9:28:fe:f0:44:23:bd:30:b7:4b:e7:0e:88:2e:
                    bd:9d:78:81:3d:ec:c5:3a:35:cd:ee:59:72:6c:49:
                    75:13:59:64:9c:c4:5e:73:d0:f0:37:ce:33:55:17:
                    7a:a2:78:1e:84:19:fb:14:d2:e5:2c:a2:03:c9:60:
                    58:57:ee:24:40:10:b1:21:4d:12:29:e9:3e:61:51:
                    6a:27:30:5f:cb:e6:90:7b:77:40:6e:93:b5:27:58:
                    6a:11:02:38:fd:7d:1c:d8:1b:9e:bd:54:c1:bf:17:
                    72:f2:7a:90:2f:24:ef:65:f6:e3:45:d1:45:31:05:
                    18:19:8e:d7:62:d5:a1:15:cf:76:81:d4:2f:46:75:
                    9d:76:d3:9a:c2:c2:a1:6e:72:eb:4b:9e:fa:17:48:
                    07:81:8e:5b:c5:bf:f2:5e:df:91:36:62:80:cf:34:
                    e6:a5:5e:b5:37:c7:13:30:79:dd:ff:d1:5e:9d:16:
                    ad:c2:08:a2:75:f4:b7:d8:ce:05:58:6a:96:6a:74:
                    58:e6:89:46:c7:69:c5:f8:6b:03:21:43:28:99:72:
                    9d:2d:3c:c6:2f:90:04:8c:f4:03
                Exponent: 65537 (0x10001)
        X509v3 extensions:
            X509v3 Basic Constraints: critical
                CA:FALSE
            X509v3 Subject Key Identifier: 
                B7:13:AD:4F:52:4F:51:C2:5B:68:0A:27:39:46:45:8F:36:A2:9D:48
            X509v3 Authority Key Identifier: 
                keyid:EF:64:4A:61:32:B7:3A:48:DF:68:ED:C7:34:4D:A2:53:DB:6A:49:07
                DirName:/C=FR/ST=IDF/L=Paris/O=Local NODE-OPCUA Certificate Authority/CN=NodeOPCUA-CA
                serial:C8:0D:72:93:8C:CC:B7:A5

            X509v3 Subject Alternative Name: 
                URI:urn:ROK:NodeOPCUA-Server, DNS:localhost, DNS:ROK
            Netscape Comment: 
                OpenSSL Generated Certificate
            X509v3 Key Usage: critical
                Digital Signature, Non Repudiation, Key Encipherment, Data Encipherment, Key Agreement, Certificate Sign
            X509v3 Extended Key Usage: critical
                TLS Web Server Authentication, TLS Web Client Authentication
    Signature Algorithm: sha256WithRSAEncryption
         2f:f1:99:44:ce:35:15:97:cb:60:b3:6e:68:6d:c1:e6:09:db:
         7a:46:4a:2f:7a:f5:3c:d1:fb:5a:4d:ed:ae:86:e1:b8:db:d7:
         8e:e7:59:1a:07:89:ef:9f:76:54:1d:a8:40:0b:4c:00:cd:b2:
         4a:61:34:64:2a:90:4b:59:89:05:e5:a3:1d:1e:79:dc:b0:97:
         e8:65:f1:c5:97:bd:47:3f:5e:db:60:a9:a5:7f:0b:f9:a7:15:
         e0:eb:76:d7:fa:d5:08:96:60:29:33:fe:f0:e5:17:8c:38:55:
         a8:ac:12:45:dd:fa:72:ba:ca:4a:f5:0e:97:d2:f2:48:ab:c0:
         80:df:af:59:bc:b5:81:13:e9:52:a5:b4:4f:1a:33:e3:d4:46:
         41:39:9f:e9:ba:24:7d:8f:86:0d:24:99:82:f1:0a:14:01:bc:
         41:b9:b3:41:70:37:38:f6:be:cf:ba:8e:19:35:ea:7a:15:e5:
         47:55:bc:1a:e1:14:04:b0:09:de:0f:4e:bc:df:1f:bb:c9:01:
         5f:d5:86:38:b4:5e:2f:e5:21:9f:6d:72:39:5f:5a:b6:84:fa:
         d7:4c:a2:24:a3:98:40:fc:40:2b:d8:ab:bb:b3:ca:c2:a0:c1:
         32:2d:3b:2c:e6:9f:21:06:cf:c0:99:71:e2:5c:26:a4:4a:93:
         82:76:cc:ac
-----BEGIN CERTIFICATE-----
MIIFGDCCBACgAwIBAgICEAwwDQYJKoZIhvcNAQELBQAwczELMAkGA1UEBhMCRlIx
DDAKBgNVBAgTA0lERjEOMAwGA1UEBxMFUGFyaXMxLzAtBgNVBAoTJkxvY2FsIE5P
REUtT1BDVUEgQ2VydGlmaWNhdGUgQXV0aG9yaXR5MRUwEwYDVQQDEwxOb2RlT1BD
VUEtQ0EwIhgPMjAxODA1MTUxMzU5NDdaGA8yMDE5MDUxNTEzNTk0N1owNTELMAkG
A1UEBhMCRlIxEjAQBgNVBAoMCU5vZGVPUENVQTESMBAGA1UEAwwJTm9kZU9QQ1VB
MIIBojANBgkqhkiG9w0BAQEFAAOCAY8AMIIBigKCAYEAxwkdi2qGRFNl5JjZdFxs
WJctl2juXFDog2BBdWF/cRH17wIfWOhmAIwp2dNSucigqCcWZfXm5ixxEySv4whb
Myt5N7mQCqAk+JeBoru73BUSlGc07gYIBGqLaNY6YzmdzDJbEhoEbempSU8ROCwR
ikkv4EsBe3NcUfKYwlRKArfhX+fvNTcsICRU1d3BaZKfzvFVtSjyoA5Nr3n/e+Db
ctNPXSYN2Sj+8EQjvTC3S+cOiC69nXiBPezFOjXN7llybEl1E1lknMRec9DwN84z
VRd6ongehBn7FNLlLKIDyWBYV+4kQBCxIU0SKek+YVFqJzBfy+aQe3dAbpO1J1hq
EQI4/X0c2BuevVTBvxdy8nqQLyTvZfbjRdFFMQUYGY7XYtWhFc92gdQvRnWddtOa
wsKhbnLrS576F0gHgY5bxb/yXt+RNmKAzzTmpV61N8cTMHnd/9FenRatwgiidfS3
2M4FWGqWanRY5olGx2nF+GsDIUMomXKdLTzGL5AEjPQDAgMBAAGjggFuMIIBajAM
BgNVHRMBAf8EAjAAMB0GA1UdDgQWBBS3E61PUk9RwltoCic5RkWPNqKdSDCBpQYD
VR0jBIGdMIGagBTvZEphMrc6SN9o7cc0TaJT22pJB6F3pHUwczELMAkGA1UEBhMC
RlIxDDAKBgNVBAgTA0lERjEOMAwGA1UEBxMFUGFyaXMxLzAtBgNVBAoTJkxvY2Fs
IE5PREUtT1BDVUEgQ2VydGlmaWNhdGUgQXV0aG9yaXR5MRUwEwYDVQQDEwxOb2Rl
T1BDVUEtQ0GCCQDIDXKTjMy3pTAzBgNVHREELDAqhhh1cm46Uk9LOk5vZGVPUENV
QS1TZXJ2ZXKCCWxvY2FsaG9zdIIDUk9LMCwGCWCGSAGG+EIBDQQfFh1PcGVuU1NM
IEdlbmVyYXRlZCBDZXJ0aWZpY2F0ZTAOBgNVHQ8BAf8EBAMCAvwwIAYDVR0lAQH/
BBYwFAYIKwYBBQUHAwEGCCsGAQUFBwMCMA0GCSqGSIb3DQEBCwUAA4IBAQAv8ZlE
zjUVl8tgs25obcHmCdt6RkovevU80ftaTe2uhuG429eO51kaB4nvn3ZUHahAC0wA
zbJKYTRkKpBLWYkF5aMdHnncsJfoZfHFl71HP17bYKmlfwv5pxXg63bX+tUIlmAp
M/7w5ReMOFWorBJF3fpyuspK9Q6X0vJIq8CA369ZvLWBE+lSpbRPGjPj1EZBOZ/p
uiR9j4YNJJmC8QoUAbxBubNBcDc49r7Puo4ZNep6FeVHVbwa4RQEsAneD0683x+7
yQFf1YY4tF4v5SGfbXI5X1q2hPrXTKIko5hA/EAr2Ku7s8rCoMEyLTss5p8hBs/A
mXHiXCakSpOCdsys
-----END CERTIFICATE-----
-----BEGIN CERTIFICATE-----
MIIE3TCCA8WgAwIBAgIJAMgNcpOMzLelMA0GCSqGSIb3DQEBCwUAMHMxCzAJBgNV
BAYTAkZSMQwwCgYDVQQIEwNJREYxDjAMBgNVBAcTBVBhcmlzMS8wLQYDVQQKEyZM
b2NhbCBOT0RFLU9QQ1VBIENlcnRpZmljYXRlIEF1dGhvcml0eTEVMBMGA1UEAxMM
Tm9kZU9QQ1VBLUNBMB4XDTE4MDUxNjEzNTk0OVoXDTI4MDUxMzEzNTk0OVowczEL
MAkGA1UEBhMCRlIxDDAKBgNVBAgTA0lERjEOMAwGA1UEBxMFUGFyaXMxLzAtBgNV
BAoTJkxvY2FsIE5PREUtT1BDVUEgQ2VydGlmaWNhdGUgQXV0aG9yaXR5MRUwEwYD
VQQDEwxOb2RlT1BDVUEtQ0EwggEiMA0GCSqGSIb3DQEBAQUAA4IBDwAwggEKAoIB
AQDIYJd2w8gwNnGFEs7eQqrgnt4M3ruKFfahBF0srsQq6HNRelGnYeO99eUGt3Vy
p+ZZ1c1+ObnNRE/xcE0p8bhLKXWQTzz9HdtzThuVRXhEnEz1nJfaW98AMe9ALdha
ojSOmqA3KYZu3LJ57t405lFDHeZdWZfNX4b3GTbBYw91M7uc3iwgVa0ddb6Go8Nl
wdoCrRVB5cojd7ZMfYgEREzCqrSSh5ATkOAjRbmA+9Oz9isrmLEJGdmWbIWhvQ2/
1QPMyW7isPVf7nqiOERhTSVh4tjD6VMBnk2ROYmCqcY1tA/YN9wWs41xXP3V9QlT
zAzXxxdjP1ojqeaBZX2/wi2/AgMBAAGjggFyMIIBbjAdBgNVHQ4EFgQU72RKYTK3
OkjfaO3HNE2iU9tqSQcwgaUGA1UdIwSBnTCBmoAU72RKYTK3OkjfaO3HNE2iU9tq
SQehd6R1MHMxCzAJBgNVBAYTAkZSMQwwCgYDVQQIEwNJREYxDjAMBgNVBAcTBVBh
cmlzMS8wLQYDVQQKEyZMb2NhbCBOT0RFLU9QQ1VBIENlcnRpZmljYXRlIEF1dGhv
cml0eTEVMBMGA1UEAxMMTm9kZU9QQ1VBLUNBggkAyA1yk4zMt6UwDAYDVR0TBAUw
AwEB/zAOBgNVHQ8BAf8EBAMCAQYwVwYJYIZIAYb4QgENBEoWSENBIENlcnRpZmlj
YXRlIGdlbmVyYXRlZCBieSBOb2RlLU9QQ1VBIENlcnRpZmljYXRlIHV0aWxpdHkg
dXNpbmcgb3BlbnNzbDAuBgNVHR8EJzAlMCOgIaAfhh1odHRwOi8vbG9jYWxob3N0
Ojg5MDAvY3JsLnBlbTANBgkqhkiG9w0BAQsFAAOCAQEAiz9UPXxad5VxkTvkIJQU
mYjbyKUmSc4VDespEmzmyaARbmp5le4KxKjzkBFdutBDUBB+G9o9nc1biY6p5ZUG
MzV4FO4VqP2e65ZV60tNvBksGbX9gjuLRnMA20r6F+rFN1xs8SolnzdJ/VDOnQPg
yZBvufyMvcPqoJzdnhYhgmik/4SdEdC7aBAQA9VLm9jyI7v8MLX1WlAJmWCXmNL0
MM2iTWkn3uydTZkcC0IyD93upvYHG1flUZPjP4VuRU5+QIsZOGmE0NC3NBiw9kr2
zL3lRxGbPLmaoVbx60MsYoudb/FzkKW0qgAwozLImzJ7TdNDqr6opbi36xzVs0go
ZQ==
-----END CERTIFICATE-----
