Certificate:
    Data:
        Version: 3 (0x2)
        Serial Number: 4107 (0x100b)
    Signature Algorithm: sha256WithRSAEncryption
        Issuer: O=NodeOPCUA, CN=NodeOPCUA
        Validity
            Not Before: May 15 13:59:47 2018 GMT
            Not After : May 15 13:59:47 2019 GMT
        Subject: O=NodeOPCUA, CN=NodeOPCUA
        Subject Public Key Info:
            Public Key Algorithm: rsaEncryption
                Public-Key: (2048 bit)
                Modulus:
                    00:d7:f1:64:00:48:ae:75:7d:54:75:2e:a1:34:74:
                    40:ee:c3:a8:eb:48:89:21:f6:df:cc:e0:ca:b2:fa:
                    7f:95:f4:8e:da:3a:1c:8f:d9:b1:00:a0:12:be:21:
                    e1:11:c6:f5:2a:7a:b6:7f:e7:c8:43:a8:e0:f0:1a:
                    a0:92:44:8b:91:e4:ad:c0:f5:6e:c9:b1:6a:95:0a:
                    57:c0:e5:62:a9:5e:51:03:6d:92:34:0e:b0:ac:f4:
                    b0:d4:51:56:d2:89:b9:9d:87:52:f7:0c:31:f4:f7:
                    42:0f:9a:3e:8e:db:7d:2b:03:12:22:f5:f5:6e:d9:
                    7e:57:16:27:e6:4b:a8:c6:eb:ea:80:e8:5e:5d:95:
                    b8:48:5b:e6:33:fb:8a:8f:e6:05:20:29:14:2a:ac:
                    d0:e1:9b:0c:09:8a:11:9e:fd:04:33:09:fc:da:6c:
                    f1:1e:3f:0c:36:0d:2e:57:27:cf:ac:d2:43:38:66:
                    77:00:5d:54:3b:df:24:74:85:99:b4:2a:43:d8:68:
                    f0:50:de:bf:e2:ef:fd:22:8d:07:e1:43:aa:5c:c6:
                    b3:c5:99:6d:6e:aa:3c:ee:9b:f1:49:38:f7:55:8c:
                    22:40:70:30:80:1b:74:5a:96:fe:39:94:af:85:44:
                    1b:2a:f6:46:7c:b8:00:10:da:3d:ea:32:5c:6c:fe:
                    fb:63
                Exponent: 65537 (0x10001)
        X509v3 extensions:
            X509v3 Basic Constraints: critical
                CA:FALSE
            X509v3 Subject Key Identifier: 
                5C:41:97:BA:E4:AA:C9:90:DC:7F:CE:3F:82:D0:29:72:6D:29:5A:64
            X509v3 Authority Key Identifier: 
                keyid:5C:41:97:BA:E4:AA:C9:90:DC:7F:CE:3F:82:D0:29:72:6D:29:5A:64
                DirName:/O=NodeOPCUA/CN=NodeOPCUA
                serial:10:0B

            X509v3 Subject Alternative Name: 
                URI:urn:ROK:NodeOPCUA-Server, DNS:localhost, DNS:ROK
            Netscape Comment: 
                OpenSSL Generated Certificate
            X509v3 Key Usage: critical
                Digital Signature, Non Repudiation, Key Encipherment, Data Encipherment, Key Agreement, Certificate Sign
            X509v3 Extended Key Usage: critical
                TLS Web Server Authentication, TLS Web Client Authentication
    Signature Algorithm: sha256WithRSAEncryption
         06:fe:61:6a:90:9e:10:cd:f1:38:52:0b:95:46:7e:67:7b:db:
         c1:7f:d4:b4:94:39:8f:55:b6:ce:9c:12:d2:f5:58:c1:c6:fb:
         fa:66:29:53:d6:c6:f4:fc:19:45:06:ce:d3:56:c9:28:9d:f6:
         fe:e5:a5:11:55:ff:55:a7:ae:d1:61:5e:ef:04:99:68:95:11:
         6a:44:f6:35:a2:d0:52:73:71:6e:73:c6:44:17:c5:78:6e:5a:
         74:cf:0b:99:f5:00:7f:14:e3:0d:94:7f:e5:5a:63:9c:dc:cd:
         bb:8c:7a:18:18:7f:0e:13:bc:a7:bd:c8:48:27:61:be:5d:16:
         68:e3:77:38:2e:bd:34:98:8f:ff:00:63:ae:c8:44:9d:01:95:
         f2:b1:bb:f9:f5:dd:52:b3:37:8b:06:6d:82:2d:f6:91:92:97:
         db:b9:be:2b:61:ed:fb:42:8f:d8:14:42:a1:ea:63:f0:0a:8f:
         69:62:97:a5:5e:0d:6a:f1:85:f8:e0:ee:c5:15:dd:61:26:41:
         59:ea:ca:46:6d:8d:8a:87:61:0b:20:38:f8:58:44:c2:d8:6b:
         16:1b:e2:ca:df:c9:fb:fd:14:cb:6c:57:af:65:1d:44:76:a6:
         1e:42:54:8a:09:fc:22:b5:1a:fb:78:81:af:f0:4e:de:eb:6b:
         36:e5:18:43
-----BEGIN CERTIFICATE-----
MIID6zCCAtOgAwIBAgICEAswDQYJKoZIhvcNAQELBQAwKDESMBAGA1UEChMJTm9k
ZU9QQ1VBMRIwEAYDVQQDEwlOb2RlT1BDVUEwIhgPMjAxODA1MTUxMzU5NDdaGA8y
MDE5MDUxNTEzNTk0N1owKDESMBAGA1UEChMJTm9kZU9QQ1VBMRIwEAYDVQQDEwlO
b2RlT1BDVUEwggEiMA0GCSqGSIb3DQEBAQUAA4IBDwAwggEKAoIBAQDX8WQASK51
fVR1LqE0dEDuw6jrSIkh9t/M4Mqy+n+V9I7aOhyP2bEAoBK+IeERxvUqerZ/58hD
qODwGqCSRIuR5K3A9W7JsWqVClfA5WKpXlEDbZI0DrCs9LDUUVbSibmdh1L3DDH0
90IPmj6O230rAxIi9fVu2X5XFifmS6jG6+qA6F5dlbhIW+Yz+4qP5gUgKRQqrNDh
mwwJihGe/QQzCfzabPEePww2DS5XJ8+s0kM4ZncAXVQ73yR0hZm0KkPYaPBQ3r/i
7/0ijQfhQ6pcxrPFmW1uqjzum/FJOPdVjCJAcDCAG3Ralv45lK+FRBsq9kZ8uAAQ
2j3qMlxs/vtjAgMBAAGjggEZMIIBFTAMBgNVHRMBAf8EAjAAMB0GA1UdDgQWBBRc
QZe65KrJkNx/zj+C0ClybSlaZDBRBgNVHSMESjBIgBRcQZe65KrJkNx/zj+C0Cly
bSlaZKEspCowKDESMBAGA1UEChMJTm9kZU9QQ1VBMRIwEAYDVQQDEwlOb2RlT1BD
VUGCAhALMDMGA1UdEQQsMCqGGHVybjpST0s6Tm9kZU9QQ1VBLVNlcnZlcoIJbG9j
YWxob3N0ggNST0swLAYJYIZIAYb4QgENBB8WHU9wZW5TU0wgR2VuZXJhdGVkIENl
cnRpZmljYXRlMA4GA1UdDwEB/wQEAwIC/DAgBgNVHSUBAf8EFjAUBggrBgEFBQcD
AQYIKwYBBQUHAwIwDQYJKoZIhvcNAQELBQADggEBAAb+YWqQnhDN8ThSC5VGfmd7
28F/1LSUOY9Vts6cEtL1WMHG+/pmKVPWxvT8GUUGztNWySid9v7lpRFV/1WnrtFh
Xu8EmWiVEWpE9jWi0FJzcW5zxkQXxXhuWnTPC5n1AH8U4w2Uf+VaY5zczbuMehgY
fw4TvKe9yEgnYb5dFmjjdzguvTSYj/8AY67IRJ0BlfKxu/n13VKzN4sGbYIt9pGS
l9u5vith7ftCj9gUQqHqY/AKj2lil6VeDWrxhfjg7sUV3WEmQVnqykZtjYqHYQsg
OPhYRMLYaxYb4srfyfv9FMtsV69lHUR2ph5CVIoJ/CK1Gvt4ga/wTt7razblGEM=
-----END CERTIFICATE-----
