Certificate Request:
    Data:
        Version: 0 (0x0)
        Subject: C=FR, ST=IDF, L=Paris, O=Local NODE-OPCUA Certificate Authority, CN=NodeOPCUA-CA
        Subject Public Key Info:
            Public Key Algorithm: rsaEncryption
                Public-Key: (2048 bit)
                Modulus:
                    00:c8:60:97:76:c3:c8:30:36:71:85:12:ce:de:42:
                    aa:e0:9e:de:0c:de:bb:8a:15:f6:a1:04:5d:2c:ae:
                    c4:2a:e8:73:51:7a:51:a7:61:e3:bd:f5:e5:06:b7:
                    75:72:a7:e6:59:d5:cd:7e:39:b9:cd:44:4f:f1:70:
                    4d:29:f1:b8:4b:29:75:90:4f:3c:fd:1d:db:73:4e:
                    1b:95:45:78:44:9c:4c:f5:9c:97:da:5b:df:00:31:
                    ef:40:2d:d8:5a:a2:34:8e:9a:a0:37:29:86:6e:dc:
                    b2:79:ee:de:34:e6:51:43:1d:e6:5d:59:97:cd:5f:
                    86:f7:19:36:c1:63:0f:75:33:bb:9c:de:2c:20:55:
                    ad:1d:75:be:86:a3:c3:65:c1:da:02:ad:15:41:e5:
                    ca:23:77:b6:4c:7d:88:04:44:4c:c2:aa:b4:92:87:
                    90:13:90:e0:23:45:b9:80:fb:d3:b3:f6:2b:2b:98:
                    b1:09:19:d9:96:6c:85:a1:bd:0d:bf:d5:03:cc:c9:
                    6e:e2:b0:f5:5f:ee:7a:a2:38:44:61:4d:25:61:e2:
                    d8:c3:e9:53:01:9e:4d:91:39:89:82:a9:c6:35:b4:
                    0f:d8:37:dc:16:b3:8d:71:5c:fd:d5:f5:09:53:cc:
                    0c:d7:c7:17:63:3f:5a:23:a9:e6:81:65:7d:bf:c2:
                    2d:bf
                Exponent: 65537 (0x10001)
        Attributes:
        Requested Extensions:
            X509v3 Basic Constraints: critical
                CA:FALSE
            X509v3 Key Usage: 
                Digital Signature, Non Repudiation, Key Encipherment, Data Encipherment, Key Agreement
            X509v3 Subject Alternative Name: 
                URI:undefined
            Netscape Comment: 
                CA Generated by Node-OPCUA Certificate utility using openssl
    Signature Algorithm: sha256WithRSAEncryption
         24:dd:4f:a7:29:98:94:52:0c:cb:9e:0d:ed:61:14:4c:f5:05:
         8e:52:ff:1f:1b:07:f6:67:bd:8e:da:38:de:2b:be:4e:1a:57:
         4b:1c:49:f6:c6:67:e3:20:f5:4d:4c:01:d1:03:39:02:7c:41:
         92:24:7b:03:cc:41:7f:fe:3e:08:6a:71:79:c3:48:e9:5f:72:
         dd:17:fb:32:1e:69:25:db:35:5e:b2:be:39:b9:9d:64:95:52:
         91:05:32:fc:d6:22:3e:55:12:49:af:2c:b6:60:2b:42:82:12:
         ff:31:13:a1:e5:13:92:02:fe:0e:b1:66:e3:07:ac:3d:51:75:
         d2:ee:ab:c4:75:7f:c8:2a:b8:bc:76:0c:eb:31:45:82:48:89:
         8d:b6:c0:72:38:f9:36:20:c0:6e:61:32:a5:7a:e3:3a:bf:e6:
         48:3a:f4:99:4f:37:7d:eb:25:a5:36:f7:9b:a0:16:57:6d:3c:
         63:be:b3:67:27:9f:a0:e0:f9:9a:58:a5:07:4d:e2:e5:7b:32:
         4a:6c:1e:4e:7b:a8:7a:a6:45:80:1d:cf:a6:c0:e1:6d:ce:d1:
         36:5d:a3:45:31:42:14:34:9b:be:4b:a8:c8:3c:90:8b:8d:a3:
         ce:b1:94:89:56:0b:6b:25:3a:aa:88:e8:36:a6:47:50:b7:1f:
         f8:80:b5:95
-----BEGIN CERTIFICATE REQUEST-----
MIIDSjCCAjICAQAwczELMAkGA1UEBhMCRlIxDDAKBgNVBAgTA0lERjEOMAwGA1UE
BxMFUGFyaXMxLzAtBgNVBAoTJkxvY2FsIE5PREUtT1BDVUEgQ2VydGlmaWNhdGUg
QXV0aG9yaXR5MRUwEwYDVQQDEwxOb2RlT1BDVUEtQ0EwggEiMA0GCSqGSIb3DQEB
AQUAA4IBDwAwggEKAoIBAQDIYJd2w8gwNnGFEs7eQqrgnt4M3ruKFfahBF0srsQq
6HNRelGnYeO99eUGt3Vyp+ZZ1c1+ObnNRE/xcE0p8bhLKXWQTzz9HdtzThuVRXhE
nEz1nJfaW98AMe9ALdhaojSOmqA3KYZu3LJ57t405lFDHeZdWZfNX4b3GTbBYw91
M7uc3iwgVa0ddb6Go8NlwdoCrRVB5cojd7ZMfYgEREzCqrSSh5ATkOAjRbmA+9Oz
9isrmLEJGdmWbIWhvQ2/1QPMyW7isPVf7nqiOERhTSVh4tjD6VMBnk2ROYmCqcY1
tA/YN9wWs41xXP3V9QlTzAzXxxdjP1ojqeaBZX2/wi2/AgMBAAGggZEwgY4GCSqG
SIb3DQEJDjGBgDB+MAwGA1UdEwEB/wQCMAAwCwYDVR0PBAQDAgP4MBQGA1UdEQQN
MAuGCXVuZGVmaW5lZDBLBglghkgBhvhCAQ0EPhY8Q0EgR2VuZXJhdGVkIGJ5IE5v
ZGUtT1BDVUEgQ2VydGlmaWNhdGUgdXRpbGl0eSB1c2luZyBvcGVuc3NsMA0GCSqG
SIb3DQEBCwUAA4IBAQAk3U+nKZiUUgzLng3tYRRM9QWOUv8fGwf2Z72O2jjeK75O
GldLHEn2xmfjIPVNTAHRAzkCfEGSJHsDzEF//j4IanF5w0jpX3LdF/syHmkl2zVe
sr45uZ1klVKRBTL81iI+VRJJryy2YCtCghL/MROh5ROSAv4OsWbjB6w9UXXS7qvE
dX/IKri8dgzrMUWCSImNtsByOPk2IMBuYTKleuM6v+ZIOvSZTzd96yWlNveboBZX
bTxjvrNnJ5+g4PmaWKUHTeLlezJKbB5Oe6h6pkWAHc+mwOFtztE2XaNFMUIUNJu+
S6jIPJCLjaPOsZSJVgtrJTqqiOg2pkdQtx/4gLWV
-----END CERTIFICATE REQUEST-----
