Certificate:
    Data:
        Version: 3 (0x2)
        Serial Number: 4097 (0x1001)
    Signature Algorithm: sha256WithRSAEncryption
        Issuer: O=NodeOPCUA, CN=NodeOPCUA
        Validity
            Not Before: May 15 13:59:47 2018 GMT
            Not After : May 15 13:59:47 2019 GMT
        Subject: O=NodeOPCUA, CN=NodeOPCUA
        Subject Public Key Info:
            Public Key Algorithm: rsaEncryption
                Public-Key: (1024 bit)
                Modulus:
                    00:bc:db:bf:99:77:9c:bd:a5:bc:d3:6f:7d:05:97:
                    8f:67:c5:a7:b3:2f:9e:86:a4:3b:b3:1b:bd:a0:44:
                    d1:37:63:20:c9:e6:4d:34:8a:32:82:94:7d:60:44:
                    8a:2f:b7:f9:be:0f:00:57:73:2c:35:90:b2:fb:89:
                    61:07:0f:5c:3c:fd:0d:05:f7:42:bb:92:26:65:9b:
                    f9:7c:ec:ce:5a:23:69:15:59:ff:68:b1:56:d8:d9:
                    99:75:fb:1d:33:86:2e:14:f5:41:20:7b:c5:57:26:
                    e8:c1:f3:cf:07:58:7b:cf:3e:55:47:ce:2d:c8:c5:
                    d4:b8:22:93:cb:60:ca:b2:ef
                Exponent: 65537 (0x10001)
        X509v3 extensions:
            X509v3 Basic Constraints: critical
                CA:FALSE
            X509v3 Subject Key Identifier: 
                B6:90:9E:AB:5C:39:FC:27:1A:1A:61:5A:31:92:E9:9D:F3:13:35:33
            X509v3 Authority Key Identifier: 
                keyid:B6:90:9E:AB:5C:39:FC:27:1A:1A:61:5A:31:92:E9:9D:F3:13:35:33
                DirName:/O=NodeOPCUA/CN=NodeOPCUA
                serial:10:01

            X509v3 Subject Alternative Name: 
                URI:urn:ROK:NodeOPCUA-Client, DNS:localhost, DNS:ROK
            Netscape Comment: 
                OpenSSL Generated Certificate
            X509v3 Key Usage: critical
                Digital Signature, Non Repudiation, Key Encipherment, Data Encipherment, Key Agreement, Certificate Sign
            X509v3 Extended Key Usage: critical
                TLS Web Server Authentication, TLS Web Client Authentication
    Signature Algorithm: sha256WithRSAEncryption
         91:71:21:fb:b6:49:5b:f1:88:b7:3a:01:a4:ea:1c:32:b4:8d:
         4c:86:bb:f4:23:7a:27:a2:c3:ae:7a:ce:f6:bb:f4:84:14:92:
         a3:9c:db:a1:06:66:5f:03:9e:0b:cd:e9:d5:0c:d2:6d:71:c6:
         91:ae:87:53:40:aa:f8:ff:e1:13:ec:ef:0a:d4:19:cb:a9:8e:
         6c:39:6f:20:e6:64:0a:1d:7b:e9:b4:cd:d8:33:40:73:5c:05:
         a5:f7:37:df:48:ef:94:d1:4a:4c:d4:af:cc:de:e2:29:15:9b:
         93:f1:d7:32:01:10:83:42:10:15:1b:76:f0:55:62:e9:ca:0d:
         07:f1
-----BEGIN CERTIFICATE-----
MIIC5jCCAk+gAwIBAgICEAEwDQYJKoZIhvcNAQELBQAwKDESMBAGA1UEChMJTm9k
ZU9QQ1VBMRIwEAYDVQQDEwlOb2RlT1BDVUEwIhgPMjAxODA1MTUxMzU5NDdaGA8y
MDE5MDUxNTEzNTk0N1owKDESMBAGA1UEChMJTm9kZU9QQ1VBMRIwEAYDVQQDEwlO
b2RlT1BDVUEwgZ8wDQYJKoZIhvcNAQEBBQADgY0AMIGJAoGBALzbv5l3nL2lvNNv
fQWXj2fFp7MvnoakO7MbvaBE0TdjIMnmTTSKMoKUfWBEii+3+b4PAFdzLDWQsvuJ
YQcPXDz9DQX3QruSJmWb+XzszlojaRVZ/2ixVtjZmXX7HTOGLhT1QSB7xVcm6MHz
zwdYe88+VUfOLcjF1Lgik8tgyrLvAgMBAAGjggEZMIIBFTAMBgNVHRMBAf8EAjAA
MB0GA1UdDgQWBBS2kJ6rXDn8JxoaYVoxkumd8xM1MzBRBgNVHSMESjBIgBS2kJ6r
XDn8JxoaYVoxkumd8xM1M6EspCowKDESMBAGA1UEChMJTm9kZU9QQ1VBMRIwEAYD
VQQDEwlOb2RlT1BDVUGCAhABMDMGA1UdEQQsMCqGGHVybjpST0s6Tm9kZU9QQ1VB
LUNsaWVudIIJbG9jYWxob3N0ggNST0swLAYJYIZIAYb4QgENBB8WHU9wZW5TU0wg
R2VuZXJhdGVkIENlcnRpZmljYXRlMA4GA1UdDwEB/wQEAwIC/DAgBgNVHSUBAf8E
FjAUBggrBgEFBQcDAQYIKwYBBQUHAwIwDQYJKoZIhvcNAQELBQADgYEAkXEh+7ZJ
W/GItzoBpOocMrSNTIa79CN6J6LDrnrO9rv0hBSSo5zboQZmXwOeC83p1QzSbXHG
ka6HU0Cq+P/hE+zvCtQZy6mObDlvIOZkCh176bTN2DNAc1wFpfc330jvlNFKTNSv
zN7iKRWbk/HXMgEQg0IQFRt28FVi6coNB/E=
-----END CERTIFICATE-----
