Certificate:
    Data:
        Version: 3 (0x2)
        Serial Number: 4098 (0x1002)
    Signature Algorithm: sha256WithRSAEncryption
        Issuer: C=FR, ST=IDF, L=Paris, O=Local NODE-OPCUA Certificate Authority, CN=NodeOPCUA-CA
        Validity
            Not Before: May 15 13:59:47 2018 GMT
            Not After : May 15 13:59:47 2019 GMT
        Subject: C=FR, O=NodeOPCUA, CN=NodeOPCUA
        Subject Public Key Info:
            Public Key Algorithm: rsaEncryption
                Public-Key: (2048 bit)
                Modulus:
                    00:cf:f3:bf:18:b1:82:4f:80:9a:3d:63:15:b7:bf:
                    cb:ed:5b:c0:d7:20:2c:e7:35:2d:bf:69:b3:ca:b5:
                    b5:aa:f0:68:05:f6:ee:a6:c6:8d:b6:e1:08:19:03:
                    4f:b2:16:88:fa:15:a4:ba:f0:21:5a:c5:b8:a1:7a:
                    9b:e5:9c:f9:bd:9a:8c:26:be:76:60:40:9b:c5:73:
                    88:5a:0d:45:08:57:3c:b9:cb:74:06:d5:e7:fd:30:
                    21:81:61:ed:96:36:f2:d0:b8:8b:03:a8:99:3f:d1:
                    bc:87:0f:a5:fc:6f:58:00:0b:22:4c:49:44:ab:8e:
                    60:59:b4:ee:fc:1a:a1:87:e0:b3:53:9a:c4:ae:ee:
                    58:b0:33:af:ce:fa:36:b7:28:9d:ea:12:44:5e:9c:
                    41:cb:45:82:ec:af:fc:ad:54:91:63:af:44:91:41:
                    ed:0b:69:2b:0a:fd:10:59:c9:85:87:c1:c3:04:e4:
                    28:92:73:f6:d0:82:7c:90:8b:90:8d:37:e7:0d:73:
                    13:d8:ff:23:bc:7c:cb:f4:73:01:53:6b:c0:13:fb:
                    ac:88:61:34:16:e6:17:46:bb:58:5d:8a:bd:3d:7b:
                    01:cc:2c:1b:f7:ba:1f:cc:42:92:67:cb:b8:e3:c7:
                    7e:62:dd:58:e4:e9:d9:90:42:11:fb:62:1f:fa:15:
                    d9:53
                Exponent: 65537 (0x10001)
        X509v3 extensions:
            X509v3 Basic Constraints: critical
                CA:FALSE
            X509v3 Subject Key Identifier: 
                5F:5D:B1:EA:A3:D7:6C:3E:3E:43:2C:A4:4E:B4:E3:01:E8:10:5E:28
            X509v3 Authority Key Identifier: 
                keyid:EF:64:4A:61:32:B7:3A:48:DF:68:ED:C7:34:4D:A2:53:DB:6A:49:07
                DirName:/C=FR/ST=IDF/L=Paris/O=Local NODE-OPCUA Certificate Authority/CN=NodeOPCUA-CA
                serial:C8:0D:72:93:8C:CC:B7:A5

            X509v3 Subject Alternative Name: 
                URI:urn:ROK:NodeOPCUA-Client, DNS:localhost, DNS:ROK
            Netscape Comment: 
                OpenSSL Generated Certificate
            X509v3 Key Usage: critical
                Digital Signature, Non Repudiation, Key Encipherment, Data Encipherment, Key Agreement, Certificate Sign
            X509v3 Extended Key Usage: critical
                TLS Web Server Authentication, TLS Web Client Authentication
    Signature Algorithm: sha256WithRSAEncryption
         23:a8:93:fa:44:5e:3a:26:31:5d:cc:b6:88:54:38:fd:db:e9:
         80:55:16:46:df:b5:c2:8b:9c:78:d5:56:2f:d2:53:b4:7b:66:
         e0:f9:42:51:55:c1:34:c2:4e:bc:96:51:fa:6e:0f:34:1c:91:
         e8:df:e7:ea:d7:44:00:c0:fc:b3:fe:22:8f:6d:7b:fe:18:e1:
         a2:a8:ac:d2:3c:69:c2:82:29:51:7c:db:68:e9:4c:51:eb:57:
         05:3b:9a:33:98:cd:c1:76:e1:cf:60:1f:9c:c5:d0:d0:62:3e:
         79:85:06:2f:48:dd:c8:08:47:14:80:f8:2f:2d:19:90:05:ae:
         18:d6:53:ed:06:8f:02:b3:ae:d5:91:5e:96:ba:b6:58:00:13:
         45:49:13:33:d9:5b:c2:b9:d8:00:7e:a5:21:79:91:6b:85:37:
         27:0d:66:72:45:62:61:9c:48:05:41:52:0d:18:45:3f:75:ee:
         54:db:68:80:a5:f8:6f:3a:1e:d5:9b:5c:28:8c:2e:a4:95:f1:
         bb:d9:4d:fd:47:59:18:3e:73:00:4a:3e:81:5f:0e:8a:a9:49:
         f3:3e:8b:7a:b2:d8:94:4d:7a:bc:f1:ef:67:90:f2:fa:f8:b3:
         26:0a:5f:65:8a:99:b8:8b:dc:08:83:d1:c7:ee:e9:ef:80:2c:
         08:25:6c:f4
-----BEGIN CERTIFICATE-----
MIIEmDCCA4CgAwIBAgICEAIwDQYJKoZIhvcNAQELBQAwczELMAkGA1UEBhMCRlIx
DDAKBgNVBAgTA0lERjEOMAwGA1UEBxMFUGFyaXMxLzAtBgNVBAoTJkxvY2FsIE5P
REUtT1BDVUEgQ2VydGlmaWNhdGUgQXV0aG9yaXR5MRUwEwYDVQQDEwxOb2RlT1BD
VUEtQ0EwIhgPMjAxODA1MTUxMzU5NDdaGA8yMDE5MDUxNTEzNTk0N1owNTELMAkG
A1UEBhMCRlIxEjAQBgNVBAoMCU5vZGVPUENVQTESMBAGA1UEAwwJTm9kZU9QQ1VB
MIIBIjANBgkqhkiG9w0BAQEFAAOCAQ8AMIIBCgKCAQEAz/O/GLGCT4CaPWMVt7/L
7VvA1yAs5zUtv2mzyrW1qvBoBfbupsaNtuEIGQNPshaI+hWkuvAhWsW4oXqb5Zz5
vZqMJr52YECbxXOIWg1FCFc8uct0BtXn/TAhgWHtljby0LiLA6iZP9G8hw+l/G9Y
AAsiTElEq45gWbTu/Bqhh+CzU5rEru5YsDOvzvo2tyid6hJEXpxBy0WC7K/8rVSR
Y69EkUHtC2krCv0QWcmFh8HDBOQoknP20IJ8kIuQjTfnDXMT2P8jvHzL9HMBU2vA
E/usiGE0FuYXRrtYXYq9PXsBzCwb97ofzEKSZ8u448d+Yt1Y5OnZkEIR+2If+hXZ
UwIDAQABo4IBbjCCAWowDAYDVR0TAQH/BAIwADAdBgNVHQ4EFgQUX12x6qPXbD4+
QyykTrTjAegQXigwgaUGA1UdIwSBnTCBmoAU72RKYTK3OkjfaO3HNE2iU9tqSQeh
d6R1MHMxCzAJBgNVBAYTAkZSMQwwCgYDVQQIEwNJREYxDjAMBgNVBAcTBVBhcmlz
MS8wLQYDVQQKEyZMb2NhbCBOT0RFLU9QQ1VBIENlcnRpZmljYXRlIEF1dGhvcml0
eTEVMBMGA1UEAxMMTm9kZU9QQ1VBLUNBggkAyA1yk4zMt6UwMwYDVR0RBCwwKoYY
dXJuOlJPSzpOb2RlT1BDVUEtQ2xpZW50gglsb2NhbGhvc3SCA1JPSzAsBglghkgB
hvhCAQ0EHxYdT3BlblNTTCBHZW5lcmF0ZWQgQ2VydGlmaWNhdGUwDgYDVR0PAQH/
BAQDAgL8MCAGA1UdJQEB/wQWMBQGCCsGAQUFBwMBBggrBgEFBQcDAjANBgkqhkiG
9w0BAQsFAAOCAQEAI6iT+kReOiYxXcy2iFQ4/dvpgFUWRt+1wouceNVWL9JTtHtm
4PlCUVXBNMJOvJZR+m4PNByR6N/n6tdEAMD8s/4ij217/hjhoqis0jxpwoIpUXzb
aOlMUetXBTuaM5jNwXbhz2AfnMXQ0GI+eYUGL0jdyAhHFID4Ly0ZkAWuGNZT7QaP
ArOu1ZFelrq2WAATRUkTM9lbwrnYAH6lIXmRa4U3Jw1mckViYZxIBUFSDRhFP3Xu
VNtogKX4bzoe1ZtcKIwupJXxu9lN/UdZGD5zAEo+gV8OiqlJ8z6LerLYlE16vPHv
Z5Dy+vizJgpfZYqZuIvcCIPRx+7p74AsCCVs9A==
-----END CERTIFICATE-----
