Certificate:
    Data:
        Version: 3 (0x2)
        Serial Number: 4099 (0x1003)
    Signature Algorithm: sha256WithRSAEncryption
        Issuer: O=NodeOPCUA, CN=NodeOPCUA
        Validity
            Not Before: May 15 13:59:47 2018 GMT
            Not After : May 15 13:59:47 2019 GMT
        Subject: O=NodeOPCUA, CN=NodeOPCUA
        Subject Public Key Info:
            Public Key Algorithm: rsaEncryption
                Public-Key: (2048 bit)
                Modulus:
                    00:cf:f3:bf:18:b1:82:4f:80:9a:3d:63:15:b7:bf:
                    cb:ed:5b:c0:d7:20:2c:e7:35:2d:bf:69:b3:ca:b5:
                    b5:aa:f0:68:05:f6:ee:a6:c6:8d:b6:e1:08:19:03:
                    4f:b2:16:88:fa:15:a4:ba:f0:21:5a:c5:b8:a1:7a:
                    9b:e5:9c:f9:bd:9a:8c:26:be:76:60:40:9b:c5:73:
                    88:5a:0d:45:08:57:3c:b9:cb:74:06:d5:e7:fd:30:
                    21:81:61:ed:96:36:f2:d0:b8:8b:03:a8:99:3f:d1:
                    bc:87:0f:a5:fc:6f:58:00:0b:22:4c:49:44:ab:8e:
                    60:59:b4:ee:fc:1a:a1:87:e0:b3:53:9a:c4:ae:ee:
                    58:b0:33:af:ce:fa:36:b7:28:9d:ea:12:44:5e:9c:
                    41:cb:45:82:ec:af:fc:ad:54:91:63:af:44:91:41:
                    ed:0b:69:2b:0a:fd:10:59:c9:85:87:c1:c3:04:e4:
                    28:92:73:f6:d0:82:7c:90:8b:90:8d:37:e7:0d:73:
                    13:d8:ff:23:bc:7c:cb:f4:73:01:53:6b:c0:13:fb:
                    ac:88:61:34:16:e6:17:46:bb:58:5d:8a:bd:3d:7b:
                    01:cc:2c:1b:f7:ba:1f:cc:42:92:67:cb:b8:e3:c7:
                    7e:62:dd:58:e4:e9:d9:90:42:11:fb:62:1f:fa:15:
                    d9:53
                Exponent: 65537 (0x10001)
        X509v3 extensions:
            X509v3 Basic Constraints: critical
                CA:FALSE
            X509v3 Subject Key Identifier: 
                5F:5D:B1:EA:A3:D7:6C:3E:3E:43:2C:A4:4E:B4:E3:01:E8:10:5E:28
            X509v3 Authority Key Identifier: 
                keyid:5F:5D:B1:EA:A3:D7:6C:3E:3E:43:2C:A4:4E:B4:E3:01:E8:10:5E:28
                DirName:/O=NodeOPCUA/CN=NodeOPCUA
                serial:10:03

            X509v3 Subject Alternative Name: 
                URI:urn:ROK:NodeOPCUA-Client, DNS:localhost, DNS:ROK
            Netscape Comment: 
                OpenSSL Generated Certificate
            X509v3 Key Usage: critical
                Digital Signature, Non Repudiation, Key Encipherment, Data Encipherment, Key Agreement, Certificate Sign
            X509v3 Extended Key Usage: critical
                TLS Web Server Authentication, TLS Web Client Authentication
    Signature Algorithm: sha256WithRSAEncryption
         ba:7c:41:f0:d2:2b:07:db:5b:5a:a7:1c:26:43:0f:e8:99:51:
         68:68:bc:80:80:8c:e4:84:11:82:39:67:66:c5:a0:45:cc:90:
         1f:19:85:94:45:b6:1f:c7:ce:28:38:40:ef:c9:ce:18:1c:86:
         10:58:0c:56:eb:4b:dd:9f:a6:b9:ab:c0:0e:0a:01:29:4c:38:
         18:f7:8b:f3:d5:0b:fc:d8:45:51:54:13:69:14:4b:1a:e4:da:
         02:b7:9b:21:d8:75:21:aa:f6:36:0c:92:55:56:71:68:e0:88:
         a1:bd:7d:e7:fb:47:02:47:3e:2a:03:37:d6:0d:ce:e6:c5:6d:
         5c:6c:a8:5e:72:34:b2:40:75:ac:c7:c1:ab:f1:6c:20:21:a7:
         90:fd:1f:c4:90:ec:8d:8c:a1:fb:fb:4a:ea:ed:ce:f2:92:48:
         f7:d4:41:6a:35:bb:89:80:70:c9:6c:ba:32:4e:0f:2b:22:87:
         e1:49:6b:26:92:87:67:fc:8e:f0:10:3e:1a:0c:5d:03:33:70:
         d5:14:6f:3f:7c:1d:3b:f1:38:78:53:75:6f:25:0c:c1:88:9d:
         88:5b:7e:20:c2:d4:e0:0f:30:e4:a4:02:33:4e:05:15:20:f3:
         89:83:f6:3a:d7:e0:6a:87:fb:ed:60:03:e5:4f:70:e5:4d:f8:
         3e:02:eb:28
-----BEGIN CERTIFICATE-----
MIID6zCCAtOgAwIBAgICEAMwDQYJKoZIhvcNAQELBQAwKDESMBAGA1UEChMJTm9k
ZU9QQ1VBMRIwEAYDVQQDEwlOb2RlT1BDVUEwIhgPMjAxODA1MTUxMzU5NDdaGA8y
MDE5MDUxNTEzNTk0N1owKDESMBAGA1UEChMJTm9kZU9QQ1VBMRIwEAYDVQQDEwlO
b2RlT1BDVUEwggEiMA0GCSqGSIb3DQEBAQUAA4IBDwAwggEKAoIBAQDP878YsYJP
gJo9YxW3v8vtW8DXICznNS2/abPKtbWq8GgF9u6mxo224QgZA0+yFoj6FaS68CFa
xbihepvlnPm9mowmvnZgQJvFc4haDUUIVzy5y3QG1ef9MCGBYe2WNvLQuIsDqJk/
0byHD6X8b1gACyJMSUSrjmBZtO78GqGH4LNTmsSu7liwM6/O+ja3KJ3qEkRenEHL
RYLsr/ytVJFjr0SRQe0LaSsK/RBZyYWHwcME5CiSc/bQgnyQi5CNN+cNcxPY/yO8
fMv0cwFTa8AT+6yIYTQW5hdGu1hdir09ewHMLBv3uh/MQpJny7jjx35i3Vjk6dmQ
QhH7Yh/6FdlTAgMBAAGjggEZMIIBFTAMBgNVHRMBAf8EAjAAMB0GA1UdDgQWBBRf
XbHqo9dsPj5DLKROtOMB6BBeKDBRBgNVHSMESjBIgBRfXbHqo9dsPj5DLKROtOMB
6BBeKKEspCowKDESMBAGA1UEChMJTm9kZU9QQ1VBMRIwEAYDVQQDEwlOb2RlT1BD
VUGCAhADMDMGA1UdEQQsMCqGGHVybjpST0s6Tm9kZU9QQ1VBLUNsaWVudIIJbG9j
YWxob3N0ggNST0swLAYJYIZIAYb4QgENBB8WHU9wZW5TU0wgR2VuZXJhdGVkIENl
cnRpZmljYXRlMA4GA1UdDwEB/wQEAwIC/DAgBgNVHSUBAf8EFjAUBggrBgEFBQcD
AQYIKwYBBQUHAwIwDQYJKoZIhvcNAQELBQADggEBALp8QfDSKwfbW1qnHCZDD+iZ
UWhovICAjOSEEYI5Z2bFoEXMkB8ZhZRFth/Hzig4QO/JzhgchhBYDFbrS92fprmr
wA4KASlMOBj3i/PVC/zYRVFUE2kUSxrk2gK3myHYdSGq9jYMklVWcWjgiKG9fef7
RwJHPioDN9YNzubFbVxsqF5yNLJAdazHwavxbCAhp5D9H8SQ7I2Mofv7SurtzvKS
SPfUQWo1u4mAcMlsujJODysih+FJayaSh2f8jvAQPhoMXQMzcNUUbz98HTvxOHhT
dW8lDMGInYhbfiDC1OAPMOSkAjNOBRUg84mD9jrX4GqH++1gA+VPcOVN+D4C6yg=
-----END CERTIFICATE-----
