Certificate:
    Data:
        Version: 3 (0x2)
        Serial Number: 4100 (0x1004)
    Signature Algorithm: sha256WithRSAEncryption
        Issuer: C=FR, ST=IDF, L=Paris, O=Local NODE-OPCUA Certificate Authority, CN=NodeOPCUA-CA
        Validity
            Not Before: May 15 13:59:47 2018 GMT
            Not After : May 15 13:59:47 2019 GMT
        Subject: C=FR, O=NodeOPCUA, CN=NodeOPCUA
        Subject Public Key Info:
            Public Key Algorithm: rsaEncryption
                Public-Key: (3072 bit)
                Modulus:
                    00:b9:8b:57:11:e8:5c:5f:2a:c1:e8:77:d9:69:8f:
                    80:03:1f:51:1c:a2:5e:91:42:9d:38:51:e0:8a:a6:
                    6f:b4:53:bd:79:fb:3a:37:4d:c8:70:1b:38:0b:41:
                    30:4c:b5:b6:70:de:af:47:12:fa:70:d3:a9:23:77:
                    29:d2:3d:dc:30:f3:b7:6e:31:73:b4:cd:ee:58:b8:
                    0c:c0:13:92:a6:d1:8a:b4:38:43:f0:22:f5:9a:1d:
                    0f:7f:45:48:e9:c6:1f:14:03:da:90:87:ba:1c:4d:
                    15:22:3c:ae:71:4c:0b:53:30:cb:5b:6f:51:d1:89:
                    e0:f0:64:45:fc:e3:2c:71:71:58:48:81:1b:b8:95:
                    07:97:a6:3e:a2:c3:12:08:2c:c1:cb:e4:cc:50:30:
                    fa:48:6a:91:bf:99:1e:38:b3:ae:98:f0:ff:95:8b:
                    df:cd:4a:72:77:df:70:35:70:6d:b5:4a:63:23:e9:
                    3e:25:02:2a:00:b9:20:c8:ec:eb:75:f9:9c:14:8c:
                    22:5f:2b:dd:47:e3:a8:49:d7:3d:b0:49:74:c0:b6:
                    e3:1a:ed:60:23:f1:19:5b:be:0b:87:4a:0f:e8:3e:
                    74:e1:38:2b:5e:6b:26:c7:99:df:04:9c:4a:3b:1f:
                    a7:3c:62:1a:8f:02:ae:24:54:fe:13:cb:16:3e:93:
                    65:48:5e:ab:1c:e8:2d:26:a0:57:38:50:92:ef:7c:
                    39:ae:ed:d0:2a:f9:fb:2c:2c:2d:2c:2d:db:ff:5e:
                    d5:d2:72:6e:48:1a:25:d4:c8:ac:54:f2:69:22:a1:
                    48:ea:9b:fb:36:6d:0f:4e:db:fa:83:42:00:3c:01:
                    c5:3b:f9:fc:ae:44:96:1e:ea:de:03:3c:fb:e5:6a:
                    0f:fc:09:c9:22:c7:c8:f3:03:bd:66:0d:36:f0:35:
                    1c:21:cd:e8:4e:63:1f:0a:4c:f3:4c:12:65:9f:03:
                    a3:d0:7c:4e:41:0d:62:a5:57:d8:6a:98:fd:4a:13:
                    59:ae:e3:a1:98:3c:18:57:41:07
                Exponent: 65537 (0x10001)
        X509v3 extensions:
            X509v3 Basic Constraints: critical
                CA:FALSE
            X509v3 Subject Key Identifier: 
                97:A0:E0:A7:1F:FE:0B:97:8D:B5:98:14:D4:00:AE:97:B5:A5:65:E7
            X509v3 Authority Key Identifier: 
                keyid:EF:64:4A:61:32:B7:3A:48:DF:68:ED:C7:34:4D:A2:53:DB:6A:49:07
                DirName:/C=FR/ST=IDF/L=Paris/O=Local NODE-OPCUA Certificate Authority/CN=NodeOPCUA-CA
                serial:C8:0D:72:93:8C:CC:B7:A5

            X509v3 Subject Alternative Name: 
                URI:urn:ROK:NodeOPCUA-Client, DNS:localhost, DNS:ROK
            Netscape Comment: 
                OpenSSL Generated Certificate
            X509v3 Key Usage: critical
                Digital Signature, Non Repudiation, Key Encipherment, Data Encipherment, Key Agreement, Certificate Sign
            X509v3 Extended Key Usage: critical
                TLS Web Server Authentication, TLS Web Client Authentication
    Signature Algorithm: sha256WithRSAEncryption
         53:22:2f:eb:e5:26:94:d1:08:16:eb:e2:f7:11:f4:d1:9f:d0:
         a1:61:d4:1c:50:5c:3d:81:d5:42:48:d5:2a:37:3d:c0:fe:d8:
         35:e1:84:4b:eb:58:87:f7:67:66:9f:0a:91:64:ea:9e:c1:04:
         01:80:62:6a:65:59:39:de:bb:d9:5a:be:38:58:b1:1c:43:2d:
         e0:e5:ff:db:4e:80:0a:28:92:be:ab:f1:d8:32:00:a9:f9:e0:
         1e:67:42:e9:c6:85:f2:18:21:f5:f0:d7:80:02:2f:23:2c:02:
         4c:aa:8f:79:c8:63:64:d1:fa:e4:de:db:54:b8:14:df:be:61:
         10:c7:82:48:59:0f:79:6c:a0:16:a7:b8:f3:40:92:36:8a:78:
         d3:8f:06:33:0a:bf:02:be:8b:a5:42:77:2e:9a:ac:34:93:6c:
         70:73:94:88:87:c7:f5:ec:23:58:67:c6:f8:be:fa:2c:bb:a9:
         ed:92:e4:f8:c7:b9:e0:6a:11:ea:c4:40:57:7c:95:26:d5:2c:
         95:a8:f4:e3:6b:e4:1c:42:5f:da:d5:d5:b9:07:16:49:3a:87:
         3c:ed:28:5a:95:8b:6d:f0:85:66:5b:e2:fb:e0:6a:aa:7f:a2:
         0e:2b:a4:e1:49:b6:e2:93:f9:80:95:5a:69:7c:b1:ec:7f:77:
         06:a2:83:59
-----BEGIN CERTIFICATE-----
MIIFGDCCBACgAwIBAgICEAQwDQYJKoZIhvcNAQELBQAwczELMAkGA1UEBhMCRlIx
DDAKBgNVBAgTA0lERjEOMAwGA1UEBxMFUGFyaXMxLzAtBgNVBAoTJkxvY2FsIE5P
REUtT1BDVUEgQ2VydGlmaWNhdGUgQXV0aG9yaXR5MRUwEwYDVQQDEwxOb2RlT1BD
VUEtQ0EwIhgPMjAxODA1MTUxMzU5NDdaGA8yMDE5MDUxNTEzNTk0N1owNTELMAkG
A1UEBhMCRlIxEjAQBgNVBAoMCU5vZGVPUENVQTESMBAGA1UEAwwJTm9kZU9QQ1VB
MIIBojANBgkqhkiG9w0BAQEFAAOCAY8AMIIBigKCAYEAuYtXEehcXyrB6HfZaY+A
Ax9RHKJekUKdOFHgiqZvtFO9efs6N03IcBs4C0EwTLW2cN6vRxL6cNOpI3cp0j3c
MPO3bjFztM3uWLgMwBOSptGKtDhD8CL1mh0Pf0VI6cYfFAPakIe6HE0VIjyucUwL
UzDLW29R0Yng8GRF/OMscXFYSIEbuJUHl6Y+osMSCCzBy+TMUDD6SGqRv5keOLOu
mPD/lYvfzUpyd99wNXBttUpjI+k+JQIqALkgyOzrdfmcFIwiXyvdR+OoSdc9sEl0
wLbjGu1gI/EZW74Lh0oP6D504TgrXmsmx5nfBJxKOx+nPGIajwKuJFT+E8sWPpNl
SF6rHOgtJqBXOFCS73w5ru3QKvn7LCwtLC3b/17V0nJuSBol1MisVPJpIqFI6pv7
Nm0PTtv6g0IAPAHFO/n8rkSWHureAzz75WoP/AnJIsfI8wO9Zg028DUcIc3oTmMf
CkzzTBJlnwOj0HxOQQ1ipVfYapj9ShNZruOhmDwYV0EHAgMBAAGjggFuMIIBajAM
BgNVHRMBAf8EAjAAMB0GA1UdDgQWBBSXoOCnH/4Ll421mBTUAK6XtaVl5zCBpQYD
VR0jBIGdMIGagBTvZEphMrc6SN9o7cc0TaJT22pJB6F3pHUwczELMAkGA1UEBhMC
RlIxDDAKBgNVBAgTA0lERjEOMAwGA1UEBxMFUGFyaXMxLzAtBgNVBAoTJkxvY2Fs
IE5PREUtT1BDVUEgQ2VydGlmaWNhdGUgQXV0aG9yaXR5MRUwEwYDVQQDEwxOb2Rl
T1BDVUEtQ0GCCQDIDXKTjMy3pTAzBgNVHREELDAqhhh1cm46Uk9LOk5vZGVPUENV
QS1DbGllbnSCCWxvY2FsaG9zdIIDUk9LMCwGCWCGSAGG+EIBDQQfFh1PcGVuU1NM
IEdlbmVyYXRlZCBDZXJ0aWZpY2F0ZTAOBgNVHQ8BAf8EBAMCAvwwIAYDVR0lAQH/
BBYwFAYIKwYBBQUHAwEGCCsGAQUFBwMCMA0GCSqGSIb3DQEBCwUAA4IBAQBTIi/r
5SaU0QgW6+L3EfTRn9ChYdQcUFw9gdVCSNUqNz3A/tg14YRL61iH92dmnwqRZOqe
wQQBgGJqZVk53rvZWr44WLEcQy3g5f/bToAKKJK+q/HYMgCp+eAeZ0LpxoXyGCH1
8NeAAi8jLAJMqo95yGNk0frk3ttUuBTfvmEQx4JIWQ95bKAWp7jzQJI2injTjwYz
Cr8CvoulQncumqw0k2xwc5SIh8f17CNYZ8b4vvosu6ntkuT4x7ngahHqxEBXfJUm
1SyVqPTja+QcQl/a1dW5BxZJOoc87ShalYtt8IVmW+L74Gqqf6IOK6ThSbbik/mA
lVppfLHsf3cGooNZ
-----END CERTIFICATE-----
