Certificate:
    Data:
        Version: 3 (0x2)
        Serial Number: 4101 (0x1005)
    Signature Algorithm: sha256WithRSAEncryption
        Issuer: O=NodeOPCUA, CN=NodeOPCUA
        Validity
            Not Before: May 15 13:59:47 2018 GMT
            Not After : May 15 13:59:47 2019 GMT
        Subject: O=NodeOPCUA, CN=NodeOPCUA
        Subject Public Key Info:
            Public Key Algorithm: rsaEncryption
                Public-Key: (3072 bit)
                Modulus:
                    00:b9:8b:57:11:e8:5c:5f:2a:c1:e8:77:d9:69:8f:
                    80:03:1f:51:1c:a2:5e:91:42:9d:38:51:e0:8a:a6:
                    6f:b4:53:bd:79:fb:3a:37:4d:c8:70:1b:38:0b:41:
                    30:4c:b5:b6:70:de:af:47:12:fa:70:d3:a9:23:77:
                    29:d2:3d:dc:30:f3:b7:6e:31:73:b4:cd:ee:58:b8:
                    0c:c0:13:92:a6:d1:8a:b4:38:43:f0:22:f5:9a:1d:
                    0f:7f:45:48:e9:c6:1f:14:03:da:90:87:ba:1c:4d:
                    15:22:3c:ae:71:4c:0b:53:30:cb:5b:6f:51:d1:89:
                    e0:f0:64:45:fc:e3:2c:71:71:58:48:81:1b:b8:95:
                    07:97:a6:3e:a2:c3:12:08:2c:c1:cb:e4:cc:50:30:
                    fa:48:6a:91:bf:99:1e:38:b3:ae:98:f0:ff:95:8b:
                    df:cd:4a:72:77:df:70:35:70:6d:b5:4a:63:23:e9:
                    3e:25:02:2a:00:b9:20:c8:ec:eb:75:f9:9c:14:8c:
                    22:5f:2b:dd:47:e3:a8:49:d7:3d:b0:49:74:c0:b6:
                    e3:1a:ed:60:23:f1:19:5b:be:0b:87:4a:0f:e8:3e:
                    74:e1:38:2b:5e:6b:26:c7:99:df:04:9c:4a:3b:1f:
                    a7:3c:62:1a:8f:02:ae:24:54:fe:13:cb:16:3e:93:
                    65:48:5e:ab:1c:e8:2d:26:a0:57:38:50:92:ef:7c:
                    39:ae:ed:d0:2a:f9:fb:2c:2c:2d:2c:2d:db:ff:5e:
                    d5:d2:72:6e:48:1a:25:d4:c8:ac:54:f2:69:22:a1:
                    48:ea:9b:fb:36:6d:0f:4e:db:fa:83:42:00:3c:01:
                    c5:3b:f9:fc:ae:44:96:1e:ea:de:03:3c:fb:e5:6a:
                    0f:fc:09:c9:22:c7:c8:f3:03:bd:66:0d:36:f0:35:
                    1c:21:cd:e8:4e:63:1f:0a:4c:f3:4c:12:65:9f:03:
                    a3:d0:7c:4e:41:0d:62:a5:57:d8:6a:98:fd:4a:13:
                    59:ae:e3:a1:98:3c:18:57:41:07
                Exponent: 65537 (0x10001)
        X509v3 extensions:
            X509v3 Basic Constraints: critical
                CA:FALSE
            X509v3 Subject Key Identifier: 
                97:A0:E0:A7:1F:FE:0B:97:8D:B5:98:14:D4:00:AE:97:B5:A5:65:E7
            X509v3 Authority Key Identifier: 
                keyid:97:A0:E0:A7:1F:FE:0B:97:8D:B5:98:14:D4:00:AE:97:B5:A5:65:E7
                DirName:/O=NodeOPCUA/CN=NodeOPCUA
                serial:10:05

            X509v3 Subject Alternative Name: 
                URI:urn:ROK:NodeOPCUA-Client, DNS:localhost, DNS:ROK
            Netscape Comment: 
                OpenSSL Generated Certificate
            X509v3 Key Usage: critical
                Digital Signature, Non Repudiation, Key Encipherment, Data Encipherment, Key Agreement, Certificate Sign
            X509v3 Extended Key Usage: critical
                TLS Web Server Authentication, TLS Web Client Authentication
    Signature Algorithm: sha256WithRSAEncryption
         68:98:e2:81:a8:60:7c:9c:4c:e1:3f:d4:ef:9f:be:98:c6:23:
         10:d2:a4:c2:c7:d8:bf:eb:40:1f:78:62:34:e9:54:6a:13:90:
         9d:da:96:7d:dd:5e:ec:36:64:e8:91:af:1e:9b:01:c8:62:aa:
         b6:82:91:88:8e:b9:ca:66:2f:fd:97:ef:0b:32:d6:cc:1d:59:
         ce:48:2b:a2:bc:12:28:94:6c:9f:3c:08:73:44:a3:35:34:ac:
         cd:12:d9:91:a2:bb:34:97:56:8f:e0:93:b6:f4:37:d7:4a:65:
         49:2b:6a:9c:4f:5c:97:10:8e:ea:87:51:7f:9f:ac:ee:ba:83:
         1c:34:36:7e:3d:1a:15:f6:d5:c3:c3:5b:00:c3:2c:27:c3:e7:
         bd:7d:53:dd:00:47:c3:35:4c:2e:8e:6f:83:f0:46:8a:9c:d2:
         fe:ad:c5:1f:ea:30:85:f7:59:14:0c:be:99:fa:f9:12:1b:6b:
         b9:15:ff:78:91:23:ee:bb:51:44:8c:d4:7c:0a:a3:c7:66:6c:
         ec:95:cb:03:d9:54:01:42:87:65:e7:45:9b:ce:04:d0:85:78:
         56:ac:96:a6:4a:eb:0f:01:6a:93:92:7b:7e:14:42:aa:e5:0e:
         ee:15:90:4d:1d:81:71:10:d9:23:48:55:8f:29:85:77:90:fa:
         3f:0c:63:56:03:fb:17:81:7a:af:a7:05:26:15:9a:0a:c6:4c:
         32:6f:14:95:ac:fd:9b:e7:df:26:3b:c0:16:aa:68:17:f2:66:
         c1:62:a6:41:7a:a3:4d:93:83:58:ac:89:00:b3:e0:90:55:6c:
         21:06:ba:b0:95:d7:0b:af:12:f9:1a:fb:d2:12:07:c9:84:10:
         3d:5a:1b:6d:e6:5d:86:96:aa:32:82:71:c2:5e:6e:35:79:a5:
         05:80:47:cb:b0:d1:9c:f6:28:09:9c:5a:f8:05:62:db:89:2c:
         ad:f2:d6:e7:7e:4f:ab:aa:5d:e1:9b:26:36:2c:1a:23:8c:e5:
         dd:52:b1:97:22:12
-----BEGIN CERTIFICATE-----
MIIE6zCCA1OgAwIBAgICEAUwDQYJKoZIhvcNAQELBQAwKDESMBAGA1UEChMJTm9k
ZU9QQ1VBMRIwEAYDVQQDEwlOb2RlT1BDVUEwIhgPMjAxODA1MTUxMzU5NDdaGA8y
MDE5MDUxNTEzNTk0N1owKDESMBAGA1UEChMJTm9kZU9QQ1VBMRIwEAYDVQQDEwlO
b2RlT1BDVUEwggGiMA0GCSqGSIb3DQEBAQUAA4IBjwAwggGKAoIBgQC5i1cR6Fxf
KsHod9lpj4ADH1Ecol6RQp04UeCKpm+0U715+zo3TchwGzgLQTBMtbZw3q9HEvpw
06kjdynSPdww87duMXO0ze5YuAzAE5Km0Yq0OEPwIvWaHQ9/RUjpxh8UA9qQh7oc
TRUiPK5xTAtTMMtbb1HRieDwZEX84yxxcVhIgRu4lQeXpj6iwxIILMHL5MxQMPpI
apG/mR44s66Y8P+Vi9/NSnJ333A1cG21SmMj6T4lAioAuSDI7Ot1+ZwUjCJfK91H
46hJ1z2wSXTAtuMa7WAj8RlbvguHSg/oPnThOCteaybHmd8EnEo7H6c8YhqPAq4k
VP4TyxY+k2VIXqsc6C0moFc4UJLvfDmu7dAq+fssLC0sLdv/XtXScm5IGiXUyKxU
8mkioUjqm/s2bQ9O2/qDQgA8AcU7+fyuRJYe6t4DPPvlag/8Cckix8jzA71mDTbw
NRwhzehOYx8KTPNMEmWfA6PQfE5BDWKlV9hqmP1KE1mu46GYPBhXQQcCAwEAAaOC
ARkwggEVMAwGA1UdEwEB/wQCMAAwHQYDVR0OBBYEFJeg4Kcf/guXjbWYFNQArpe1
pWXnMFEGA1UdIwRKMEiAFJeg4Kcf/guXjbWYFNQArpe1pWXnoSykKjAoMRIwEAYD
VQQKEwlOb2RlT1BDVUExEjAQBgNVBAMTCU5vZGVPUENVQYICEAUwMwYDVR0RBCww
KoYYdXJuOlJPSzpOb2RlT1BDVUEtQ2xpZW50gglsb2NhbGhvc3SCA1JPSzAsBglg
hkgBhvhCAQ0EHxYdT3BlblNTTCBHZW5lcmF0ZWQgQ2VydGlmaWNhdGUwDgYDVR0P
AQH/BAQDAgL8MCAGA1UdJQEB/wQWMBQGCCsGAQUFBwMBBggrBgEFBQcDAjANBgkq
hkiG9w0BAQsFAAOCAYEAaJjigahgfJxM4T/U75++mMYjENKkwsfYv+tAH3hiNOlU
ahOQndqWfd1e7DZk6JGvHpsByGKqtoKRiI65ymYv/ZfvCzLWzB1ZzkgrorwSKJRs
nzwIc0SjNTSszRLZkaK7NJdWj+CTtvQ310plSStqnE9clxCO6odRf5+s7rqDHDQ2
fj0aFfbVw8NbAMMsJ8PnvX1T3QBHwzVMLo5vg/BGipzS/q3FH+owhfdZFAy+mfr5
EhtruRX/eJEj7rtRRIzUfAqjx2Zs7JXLA9lUAUKHZedFm84E0IV4VqyWpkrrDwFq
k5J7fhRCquUO7hWQTR2BcRDZI0hVjymFd5D6PwxjVgP7F4F6r6cFJhWaCsZMMm8U
laz9m+ffJjvAFqpoF/JmwWKmQXqjTZODWKyJALPgkFVsIQa6sJXXC68S+Rr70hIH
yYQQPVobbeZdhpaqMoJxwl5uNXmlBYBHy7DRnPYoCZxa+AVi24ksrfLW535Pq6pd
4ZsmNiwaI4zl3VKxlyIS
-----END CERTIFICATE-----
