Certificate:
    Data:
        Version: 3 (0x2)
        Serial Number: 4102 (0x1006)
    Signature Algorithm: sha256WithRSAEncryption
        Issuer: C=FR, ST=IDF, L=Paris, O=Local NODE-OPCUA Certificate Authority, CN=NodeOPCUA-CA
        Validity
            Not Before: May 15 13:59:47 2018 GMT
            Not After : May 15 13:59:47 2019 GMT
        Subject: C=FR, O=NodeOPCUA, CN=NodeOPCUA
        Subject Public Key Info:
            Public Key Algorithm: rsaEncryption
                Public-Key: (4096 bit)
                Modulus:
                    00:c9:13:c6:88:05:d9:60:39:58:ab:47:a3:9a:6b:
                    0c:80:bd:37:ef:cd:0d:59:60:fc:f7:6f:36:d3:38:
                    c0:ce:cb:6b:a0:47:17:5f:f8:11:d4:5a:ef:1b:a5:
                    f0:99:ed:3e:f6:be:30:97:ef:b5:fc:48:db:08:ca:
                    44:0c:ba:61:07:71:72:8e:74:d6:62:7a:dd:b8:35:
                    f0:c3:7d:2b:7a:5e:c7:01:9e:24:ac:13:a5:ad:85:
                    e8:eb:7a:c7:ff:48:52:59:cb:09:07:c2:ac:1b:4d:
                    7f:90:6d:33:e0:b5:e7:a9:5c:83:c4:cf:e6:92:8c:
                    9a:1b:e1:61:d6:0a:b4:8b:20:a8:df:23:9f:61:45:
                    9d:f8:7b:b7:13:b3:9f:1f:8d:18:c6:8c:e8:f6:5c:
                    27:c3:74:9e:ca:c2:70:20:df:ff:56:a8:6c:36:f1:
                    cd:09:ff:fb:da:fe:29:90:33:d2:8b:41:3e:2e:e6:
                    2c:ba:4d:3f:57:5b:c4:16:86:37:7e:e7:3b:19:19:
                    18:5c:b4:11:67:1b:17:da:87:44:a7:48:43:f7:14:
                    45:81:b7:74:1d:35:96:c5:c5:1c:bb:54:db:8f:e3:
                    eb:43:62:66:5c:66:95:f8:72:4e:2c:da:c0:6d:b1:
                    cb:55:a3:e6:8f:58:53:8e:41:6e:bc:e9:c2:fb:85:
                    98:ed:ee:58:27:b2:10:a6:2c:b0:42:4f:8d:4c:b6:
                    b0:21:59:68:ae:56:1e:c9:46:e1:97:fc:68:19:2a:
                    43:0d:0d:34:3a:d0:cc:3e:17:a8:5a:e9:4a:27:28:
                    ad:63:17:f3:e1:49:71:e6:1a:f7:87:7a:06:89:78:
                    c4:96:4a:3d:5e:e6:bc:ea:ae:f7:a9:05:db:96:39:
                    70:32:0e:88:a6:8e:ba:ec:34:fb:c9:c9:b0:6d:19:
                    b2:b1:56:c5:c3:82:5f:fd:9a:f9:f0:0f:37:95:b7:
                    1e:f0:ed:82:d3:1a:98:d7:8b:03:86:d3:b0:1f:f8:
                    af:b5:69:3e:2b:4a:1c:da:da:13:a1:b0:3f:d5:66:
                    78:1c:21:db:c4:e4:5c:8f:b6:f9:aa:ad:3a:45:05:
                    50:cb:91:c7:83:60:4a:55:ca:8f:1f:70:c9:14:05:
                    e2:b2:59:45:57:73:f3:73:c9:ef:5d:51:01:a1:f7:
                    73:e5:7b:ba:75:92:2f:ae:1b:77:c6:d8:20:84:c0:
                    24:e1:af:0e:79:d7:cb:ec:45:9c:c3:a1:4c:90:5d:
                    0e:7d:c4:25:8b:38:1c:0b:48:97:96:45:91:eb:e3:
                    05:68:54:54:74:b1:a7:0e:e6:d9:26:65:b2:5a:d6:
                    ab:32:22:86:28:d5:b6:b4:07:b4:02:7d:9b:39:6e:
                    de:23:61
                Exponent: 65537 (0x10001)
        X509v3 extensions:
            X509v3 Basic Constraints: critical
                CA:FALSE
            X509v3 Subject Key Identifier: 
                D7:C5:FB:BD:BF:6A:CE:B2:DE:77:05:FB:D7:BD:C0:07:B1:78:2E:E8
            X509v3 Authority Key Identifier: 
                keyid:EF:64:4A:61:32:B7:3A:48:DF:68:ED:C7:34:4D:A2:53:DB:6A:49:07
                DirName:/C=FR/ST=IDF/L=Paris/O=Local NODE-OPCUA Certificate Authority/CN=NodeOPCUA-CA
                serial:C8:0D:72:93:8C:CC:B7:A5

            X509v3 Subject Alternative Name: 
                URI:urn:ROK:NodeOPCUA-Client, DNS:localhost, DNS:ROK
            Netscape Comment: 
                OpenSSL Generated Certificate
            X509v3 Key Usage: critical
                Digital Signature, Non Repudiation, Key Encipherment, Data Encipherment, Key Agreement, Certificate Sign
            X509v3 Extended Key Usage: critical
                TLS Web Server Authentication, TLS Web Client Authentication
    Signature Algorithm: sha256WithRSAEncryption
         55:bb:e1:b7:13:85:4b:d5:4c:59:b7:7b:0e:5c:53:7c:f3:c1:
         75:61:3a:1e:b7:c8:de:f1:b1:ca:2f:f5:d4:ef:cd:e5:2c:d0:
         4b:5a:08:18:c2:13:3b:92:46:e2:32:7f:dc:00:09:12:f7:af:
         d8:9b:30:32:e3:aa:46:09:e8:a3:c1:cf:59:4d:02:31:e7:82:
         84:1d:c7:49:e3:c6:23:1f:74:ea:76:98:ee:8f:ec:07:41:3a:
         c2:c7:82:23:82:54:a7:21:08:9d:f9:c3:d9:c4:5e:06:0c:9e:
         27:c6:b5:3c:06:44:5c:d8:91:b8:bf:a3:5d:fd:be:12:ef:6a:
         a4:0b:9d:4c:80:9a:cb:da:e7:87:b1:de:1b:f4:71:df:72:50:
         61:61:eb:ce:05:3e:49:d8:b3:8a:e4:cf:ed:2c:2b:2a:06:ae:
         58:b0:85:2a:c5:c8:a2:6a:b9:f7:0a:2f:b2:aa:27:87:66:46:
         3a:88:64:80:1c:ff:d3:1b:2d:fa:bb:55:3f:93:a6:ed:24:00:
         76:51:44:67:32:82:60:6e:69:3d:df:f6:50:5e:7e:29:03:0e:
         05:98:66:18:83:62:89:3c:36:95:67:3c:e4:3a:3b:fd:21:5e:
         00:0f:1a:aa:21:ae:b4:e4:52:21:58:90:14:50:d7:8b:82:b7:
         e3:f2:8f:fd
-----BEGIN CERTIFICATE-----
MIIFmDCCBICgAwIBAgICEAYwDQYJKoZIhvcNAQELBQAwczELMAkGA1UEBhMCRlIx
DDAKBgNVBAgTA0lERjEOMAwGA1UEBxMFUGFyaXMxLzAtBgNVBAoTJkxvY2FsIE5P
REUtT1BDVUEgQ2VydGlmaWNhdGUgQXV0aG9yaXR5MRUwEwYDVQQDEwxOb2RlT1BD
VUEtQ0EwIhgPMjAxODA1MTUxMzU5NDdaGA8yMDE5MDUxNTEzNTk0N1owNTELMAkG
A1UEBhMCRlIxEjAQBgNVBAoMCU5vZGVPUENVQTESMBAGA1UEAwwJTm9kZU9QQ1VB
MIICIjANBgkqhkiG9w0BAQEFAAOCAg8AMIICCgKCAgEAyRPGiAXZYDlYq0ejmmsM
gL03780NWWD892820zjAzstroEcXX/gR1FrvG6Xwme0+9r4wl++1/EjbCMpEDLph
B3FyjnTWYnrduDXww30rel7HAZ4krBOlrYXo63rH/0hSWcsJB8KsG01/kG0z4LXn
qVyDxM/mkoyaG+Fh1gq0iyCo3yOfYUWd+Hu3E7OfH40Yxozo9lwnw3SeysJwIN//
VqhsNvHNCf/72v4pkDPSi0E+LuYsuk0/V1vEFoY3fuc7GRkYXLQRZxsX2odEp0hD
9xRFgbd0HTWWxcUcu1Tbj+PrQ2JmXGaV+HJOLNrAbbHLVaPmj1hTjkFuvOnC+4WY
7e5YJ7IQpiywQk+NTLawIVlorlYeyUbhl/xoGSpDDQ00OtDMPheoWulKJyitYxfz
4Ulx5hr3h3oGiXjElko9Xua86q73qQXbljlwMg6Ipo667DT7ycmwbRmysVbFw4Jf
/Zr58A83lbce8O2C0xqY14sDhtOwH/ivtWk+K0oc2toTobA/1WZ4HCHbxORcj7b5
qq06RQVQy5HHg2BKVcqPH3DJFAXisllFV3Pzc8nvXVEBofdz5Xu6dZIvrht3xtgg
hMAk4a8OedfL7EWcw6FMkF0OfcQlizgcC0iXlkWR6+MFaFRUdLGnDubZJmWyWtar
MiKGKNW2tAe0An2bOW7eI2ECAwEAAaOCAW4wggFqMAwGA1UdEwEB/wQCMAAwHQYD
VR0OBBYEFNfF+72/as6y3ncF+9e9wAexeC7oMIGlBgNVHSMEgZ0wgZqAFO9kSmEy
tzpI32jtxzRNolPbakkHoXekdTBzMQswCQYDVQQGEwJGUjEMMAoGA1UECBMDSURG
MQ4wDAYDVQQHEwVQYXJpczEvMC0GA1UEChMmTG9jYWwgTk9ERS1PUENVQSBDZXJ0
aWZpY2F0ZSBBdXRob3JpdHkxFTATBgNVBAMTDE5vZGVPUENVQS1DQYIJAMgNcpOM
zLelMDMGA1UdEQQsMCqGGHVybjpST0s6Tm9kZU9QQ1VBLUNsaWVudIIJbG9jYWxo
b3N0ggNST0swLAYJYIZIAYb4QgENBB8WHU9wZW5TU0wgR2VuZXJhdGVkIENlcnRp
ZmljYXRlMA4GA1UdDwEB/wQEAwIC/DAgBgNVHSUBAf8EFjAUBggrBgEFBQcDAQYI
KwYBBQUHAwIwDQYJKoZIhvcNAQELBQADggEBAFW74bcThUvVTFm3ew5cU3zzwXVh
Oh63yN7xscov9dTvzeUs0EtaCBjCEzuSRuIyf9wACRL3r9ibMDLjqkYJ6KPBz1lN
AjHngoQdx0njxiMfdOp2mO6P7AdBOsLHgiOCVKchCJ35w9nEXgYMnifGtTwGRFzY
kbi/o139vhLvaqQLnUyAmsva54ex3hv0cd9yUGFh684FPknYs4rkz+0sKyoGrliw
hSrFyKJqufcKL7KqJ4dmRjqIZIAc/9MbLfq7VT+Tpu0kAHZRRGcygmBuaT3f9lBe
fikDDgWYZhiDYok8NpVnPOQ6O/0hXgAPGqohrrTkUiFYkBRQ14uCt+Pyj/0=
-----END CERTIFICATE-----
