Certificate:
    Data:
        Version: 3 (0x2)
        Serial Number: 4105 (0x1009)
    Signature Algorithm: sha256WithRSAEncryption
        Issuer: O=NodeOPCUA, CN=NodeOPCUA
        Validity
            Not Before: May 15 13:59:47 2018 GMT
            Not After : May 15 13:59:47 2019 GMT
        Subject: O=NodeOPCUA, CN=NodeOPCUA
        Subject Public Key Info:
            Public Key Algorithm: rsaEncryption
                Public-Key: (1024 bit)
                Modulus:
                    00:bb:17:ad:a0:71:f1:af:d1:67:3d:eb:ad:b4:55:
                    5c:94:fe:a0:36:60:29:d4:c8:ee:82:3c:f6:cc:62:
                    0d:73:2b:24:15:c4:5d:0a:05:ce:bd:74:5e:27:97:
                    8f:d9:4f:e7:f9:9c:8f:cf:48:fe:de:36:f7:e5:a4:
                    ff:25:c6:f1:97:73:4d:3d:92:fb:00:71:0b:a0:38:
                    32:3b:ef:34:21:ea:01:25:34:ae:76:a6:09:5d:aa:
                    1d:d1:53:27:87:2e:a9:f3:f9:0f:55:30:2e:70:31:
                    7a:e3:eb:dc:a2:60:ff:97:9d:d2:49:90:8d:68:c3:
                    79:3d:f5:d7:8a:99:1a:39:e3
                Exponent: 65537 (0x10001)
        X509v3 extensions:
            X509v3 Basic Constraints: critical
                CA:FALSE
            X509v3 Subject Key Identifier: 
                A3:06:4D:B2:85:74:F0:2C:82:A8:30:30:A5:AC:8D:E3:42:05:F4:D9
            X509v3 Authority Key Identifier: 
                keyid:A3:06:4D:B2:85:74:F0:2C:82:A8:30:30:A5:AC:8D:E3:42:05:F4:D9
                DirName:/O=NodeOPCUA/CN=NodeOPCUA
                serial:10:09

            X509v3 Subject Alternative Name: 
                URI:urn:ROK:NodeOPCUA-Server, DNS:localhost, DNS:ROK
            Netscape Comment: 
                OpenSSL Generated Certificate
            X509v3 Key Usage: critical
                Digital Signature, Non Repudiation, Key Encipherment, Data Encipherment, Key Agreement, Certificate Sign
            X509v3 Extended Key Usage: critical
                TLS Web Server Authentication, TLS Web Client Authentication
    Signature Algorithm: sha256WithRSAEncryption
         4e:1a:c1:c4:8e:a0:d5:6d:62:75:44:21:3d:14:aa:ba:b3:bd:
         3f:7f:ab:82:d9:c1:60:37:36:da:8b:cc:88:3a:7e:bc:39:c1:
         34:cf:10:7f:3f:8a:0f:69:57:f3:f1:4f:1f:9f:70:f5:e8:03:
         34:4d:66:aa:db:db:a9:9b:9d:f9:c5:dd:74:74:7d:e7:95:5c:
         8a:58:07:3d:a9:d6:e5:52:19:cd:76:5f:3c:01:8d:a9:ed:42:
         31:43:c9:75:b9:8a:00:91:a7:77:13:46:6c:a0:50:69:27:64:
         6b:79:10:99:85:63:f8:26:40:64:a6:c4:a0:80:70:b1:9e:a8:
         dd:32
-----BEGIN CERTIFICATE-----
MIIC5jCCAk+gAwIBAgICEAkwDQYJKoZIhvcNAQELBQAwKDESMBAGA1UEChMJTm9k
ZU9QQ1VBMRIwEAYDVQQDEwlOb2RlT1BDVUEwIhgPMjAxODA1MTUxMzU5NDdaGA8y
MDE5MDUxNTEzNTk0N1owKDESMBAGA1UEChMJTm9kZU9QQ1VBMRIwEAYDVQQDEwlO
b2RlT1BDVUEwgZ8wDQYJKoZIhvcNAQEBBQADgY0AMIGJAoGBALsXraBx8a/RZz3r
rbRVXJT+oDZgKdTI7oI89sxiDXMrJBXEXQoFzr10XieXj9lP5/mcj89I/t429+Wk
/yXG8ZdzTT2S+wBxC6A4MjvvNCHqASU0rnamCV2qHdFTJ4cuqfP5D1UwLnAxeuPr
3KJg/5ed0kmQjWjDeT3114qZGjnjAgMBAAGjggEZMIIBFTAMBgNVHRMBAf8EAjAA
MB0GA1UdDgQWBBSjBk2yhXTwLIKoMDClrI3jQgX02TBRBgNVHSMESjBIgBSjBk2y
hXTwLIKoMDClrI3jQgX02aEspCowKDESMBAGA1UEChMJTm9kZU9QQ1VBMRIwEAYD
VQQDEwlOb2RlT1BDVUGCAhAJMDMGA1UdEQQsMCqGGHVybjpST0s6Tm9kZU9QQ1VB
LVNlcnZlcoIJbG9jYWxob3N0ggNST0swLAYJYIZIAYb4QgENBB8WHU9wZW5TU0wg
R2VuZXJhdGVkIENlcnRpZmljYXRlMA4GA1UdDwEB/wQEAwIC/DAgBgNVHSUBAf8E
FjAUBggrBgEFBQcDAQYIKwYBBQUHAwIwDQYJKoZIhvcNAQELBQADgYEAThrBxI6g
1W1idUQhPRSqurO9P3+rgtnBYDc22ovMiDp+vDnBNM8Qfz+KD2lX8/FPH59w9egD
NE1mqtvbqZud+cXddHR955VcilgHPanW5VIZzXZfPAGNqe1CMUPJdbmKAJGndxNG
bKBQaSdka3kQmYVj+CZAZKbEoIBwsZ6o3TI=
-----END CERTIFICATE-----
