Certificate:
    Data:
        Version: 3 (0x2)
        Serial Number: 4106 (0x100a)
    Signature Algorithm: sha256WithRSAEncryption
        Issuer: C=FR, ST=IDF, L=Paris, O=Local NODE-OPCUA Certificate Authority, CN=NodeOPCUA-CA
        Validity
            Not Before: May 15 13:59:47 2018 GMT
            Not After : May 15 13:59:47 2019 GMT
        Subject: C=FR, O=NodeOPCUA, CN=NodeOPCUA
        Subject Public Key Info:
            Public Key Algorithm: rsaEncryption
                Public-Key: (2048 bit)
                Modulus:
                    00:d7:f1:64:00:48:ae:75:7d:54:75:2e:a1:34:74:
                    40:ee:c3:a8:eb:48:89:21:f6:df:cc:e0:ca:b2:fa:
                    7f:95:f4:8e:da:3a:1c:8f:d9:b1:00:a0:12:be:21:
                    e1:11:c6:f5:2a:7a:b6:7f:e7:c8:43:a8:e0:f0:1a:
                    a0:92:44:8b:91:e4:ad:c0:f5:6e:c9:b1:6a:95:0a:
                    57:c0:e5:62:a9:5e:51:03:6d:92:34:0e:b0:ac:f4:
                    b0:d4:51:56:d2:89:b9:9d:87:52:f7:0c:31:f4:f7:
                    42:0f:9a:3e:8e:db:7d:2b:03:12:22:f5:f5:6e:d9:
                    7e:57:16:27:e6:4b:a8:c6:eb:ea:80:e8:5e:5d:95:
                    b8:48:5b:e6:33:fb:8a:8f:e6:05:20:29:14:2a:ac:
                    d0:e1:9b:0c:09:8a:11:9e:fd:04:33:09:fc:da:6c:
                    f1:1e:3f:0c:36:0d:2e:57:27:cf:ac:d2:43:38:66:
                    77:00:5d:54:3b:df:24:74:85:99:b4:2a:43:d8:68:
                    f0:50:de:bf:e2:ef:fd:22:8d:07:e1:43:aa:5c:c6:
                    b3:c5:99:6d:6e:aa:3c:ee:9b:f1:49:38:f7:55:8c:
                    22:40:70:30:80:1b:74:5a:96:fe:39:94:af:85:44:
                    1b:2a:f6:46:7c:b8:00:10:da:3d:ea:32:5c:6c:fe:
                    fb:63
                Exponent: 65537 (0x10001)
        X509v3 extensions:
            X509v3 Basic Constraints: critical
                CA:FALSE
            X509v3 Subject Key Identifier: 
                5C:41:97:BA:E4:AA:C9:90:DC:7F:CE:3F:82:D0:29:72:6D:29:5A:64
            X509v3 Authority Key Identifier: 
                keyid:EF:64:4A:61:32:B7:3A:48:DF:68:ED:C7:34:4D:A2:53:DB:6A:49:07
                DirName:/C=FR/ST=IDF/L=Paris/O=Local NODE-OPCUA Certificate Authority/CN=NodeOPCUA-CA
                serial:C8:0D:72:93:8C:CC:B7:A5

            X509v3 Subject Alternative Name: 
                URI:urn:ROK:NodeOPCUA-Server, DNS:localhost, DNS:ROK
            Netscape Comment: 
                OpenSSL Generated Certificate
            X509v3 Key Usage: critical
                Digital Signature, Non Repudiation, Key Encipherment, Data Encipherment, Key Agreement, Certificate Sign
            X509v3 Extended Key Usage: critical
                TLS Web Server Authentication, TLS Web Client Authentication
    Signature Algorithm: sha256WithRSAEncryption
         84:1c:79:2d:4c:9d:a2:d0:99:1d:23:54:b5:51:4f:21:7e:7e:
         cc:48:ed:ef:e5:52:3b:03:21:9a:f4:e2:6c:1f:7a:49:81:f9:
         e7:41:1b:c4:a9:67:fc:4e:da:75:bc:8a:b5:c5:d1:e7:1a:3e:
         ef:95:c3:80:10:28:4b:92:b5:82:87:4c:49:c6:df:fe:71:c0:
         9f:14:1e:7f:13:bc:25:28:ab:99:4d:36:d1:eb:ca:d5:d6:25:
         d3:f4:8e:29:5b:9c:f7:96:bc:49:5d:57:f3:00:0e:15:03:8e:
         59:41:ed:f0:a6:b5:f8:f3:33:35:b1:6c:f1:29:84:f8:07:d1:
         fb:e3:29:b9:9c:c2:ca:3f:b9:09:dc:ea:56:cb:23:d4:aa:b6:
         70:a4:70:65:f8:5b:de:05:a8:1a:ec:a0:78:8b:e1:da:9a:32:
         1d:c9:04:cd:3e:ae:f6:47:29:4c:80:0c:62:ad:c8:43:44:bb:
         2c:53:b9:54:bf:eb:a4:ee:6d:a9:5d:63:fb:1c:3f:0d:04:ec:
         50:94:d8:fe:d8:65:5d:af:52:dc:19:28:f1:37:13:ce:38:2c:
         a2:9f:8a:bb:4f:d9:76:67:5d:59:a3:fd:56:fd:15:d1:ee:df:
         31:7f:99:ec:ac:da:67:09:41:20:45:8e:9d:6f:d8:79:a8:f6:
         89:98:4a:98
-----BEGIN CERTIFICATE-----
MIIEmDCCA4CgAwIBAgICEAowDQYJKoZIhvcNAQELBQAwczELMAkGA1UEBhMCRlIx
DDAKBgNVBAgTA0lERjEOMAwGA1UEBxMFUGFyaXMxLzAtBgNVBAoTJkxvY2FsIE5P
REUtT1BDVUEgQ2VydGlmaWNhdGUgQXV0aG9yaXR5MRUwEwYDVQQDEwxOb2RlT1BD
VUEtQ0EwIhgPMjAxODA1MTUxMzU5NDdaGA8yMDE5MDUxNTEzNTk0N1owNTELMAkG
A1UEBhMCRlIxEjAQBgNVBAoMCU5vZGVPUENVQTESMBAGA1UEAwwJTm9kZU9QQ1VB
MIIBIjANBgkqhkiG9w0BAQEFAAOCAQ8AMIIBCgKCAQEA1/FkAEiudX1UdS6hNHRA
7sOo60iJIfbfzODKsvp/lfSO2jocj9mxAKASviHhEcb1Knq2f+fIQ6jg8BqgkkSL
keStwPVuybFqlQpXwOViqV5RA22SNA6wrPSw1FFW0om5nYdS9wwx9PdCD5o+jtt9
KwMSIvX1btl+VxYn5kuoxuvqgOheXZW4SFvmM/uKj+YFICkUKqzQ4ZsMCYoRnv0E
Mwn82mzxHj8MNg0uVyfPrNJDOGZ3AF1UO98kdIWZtCpD2GjwUN6/4u/9Io0H4UOq
XMazxZltbqo87pvxSTj3VYwiQHAwgBt0Wpb+OZSvhUQbKvZGfLgAENo96jJcbP77
YwIDAQABo4IBbjCCAWowDAYDVR0TAQH/BAIwADAdBgNVHQ4EFgQUXEGXuuSqyZDc
f84/gtApcm0pWmQwgaUGA1UdIwSBnTCBmoAU72RKYTK3OkjfaO3HNE2iU9tqSQeh
d6R1MHMxCzAJBgNVBAYTAkZSMQwwCgYDVQQIEwNJREYxDjAMBgNVBAcTBVBhcmlz
MS8wLQYDVQQKEyZMb2NhbCBOT0RFLU9QQ1VBIENlcnRpZmljYXRlIEF1dGhvcml0
eTEVMBMGA1UEAxMMTm9kZU9QQ1VBLUNBggkAyA1yk4zMt6UwMwYDVR0RBCwwKoYY
dXJuOlJPSzpOb2RlT1BDVUEtU2VydmVygglsb2NhbGhvc3SCA1JPSzAsBglghkgB
hvhCAQ0EHxYdT3BlblNTTCBHZW5lcmF0ZWQgQ2VydGlmaWNhdGUwDgYDVR0PAQH/
BAQDAgL8MCAGA1UdJQEB/wQWMBQGCCsGAQUFBwMBBggrBgEFBQcDAjANBgkqhkiG
9w0BAQsFAAOCAQEAhBx5LUydotCZHSNUtVFPIX5+zEjt7+VSOwMhmvTibB96SYH5
50EbxKln/E7adbyKtcXR5xo+75XDgBAoS5K1godMScbf/nHAnxQefxO8JSirmU02
0evK1dYl0/SOKVuc95a8SV1X8wAOFQOOWUHt8Ka1+PMzNbFs8SmE+AfR++MpuZzC
yj+5CdzqVssj1Kq2cKRwZfhb3gWoGuygeIvh2poyHckEzT6u9kcpTIAMYq3IQ0S7
LFO5VL/rpO5tqV1j+xw/DQTsUJTY/thlXa9S3Bko8TcTzjgsop+Ku0/ZdmddWaP9
Vv0V0e7fMX+Z7KzaZwlBIEWOnW/Yeaj2iZhKmA==
-----END CERTIFICATE-----
