Certificate:
    Data:
        Version: 3 (0x2)
        Serial Number: 4110 (0x100e)
    Signature Algorithm: sha256WithRSAEncryption
        Issuer: C=FR, ST=IDF, L=Paris, O=Local NODE-OPCUA Certificate Authority, CN=NodeOPCUA-CA
        Validity
            Not Before: May 15 13:59:47 2018 GMT
            Not After : May 15 13:59:47 2019 GMT
        Subject: C=FR, O=NodeOPCUA, CN=NodeOPCUA
        Subject Public Key Info:
            Public Key Algorithm: rsaEncryption
                Public-Key: (4096 bit)
                Modulus:
                    00:ca:75:63:51:61:1e:af:fa:53:b0:26:01:81:d3:
                    be:42:bc:2b:97:0d:e2:48:f3:be:3c:13:22:75:51:
                    f7:cf:18:da:4f:ad:f8:8f:a3:7e:e5:80:dd:31:02:
                    eb:8e:a9:bc:bd:41:71:ac:fb:83:30:94:97:02:e6:
                    2a:01:c8:20:27:5d:0e:2d:f3:ec:1b:af:20:83:73:
                    da:d4:d9:fe:f6:d3:37:85:16:31:9e:a1:fc:78:23:
                    ce:59:a6:61:96:a2:d2:37:b0:4d:10:1a:6f:12:55:
                    16:aa:46:89:ff:09:82:54:d1:f0:6a:b0:4b:43:3d:
                    dd:cd:69:36:e6:20:23:4b:04:c0:de:a7:bb:89:8c:
                    7d:47:16:5a:9a:da:3e:95:29:a5:96:5e:e9:28:44:
                    8c:f2:0f:69:22:1c:6a:3d:c5:c8:8c:b4:8a:06:e7:
                    59:34:0d:8a:18:71:2b:cd:5c:e7:b4:a4:3a:a4:63:
                    90:2c:a7:79:9e:3a:95:89:66:ad:fb:70:5f:16:7f:
                    26:bc:57:ac:67:c2:7b:40:26:b3:3f:90:31:01:d8:
                    13:0b:a6:b9:f9:72:5a:e0:ce:76:b5:61:66:a9:71:
                    a4:8a:24:8d:70:4d:2f:3c:b0:21:f2:0d:2c:0a:f6:
                    70:01:fc:48:36:92:79:ae:31:3e:7a:e5:73:ea:23:
                    d3:d3:8a:d9:64:12:2b:f5:f7:b0:2c:a6:87:e6:bf:
                    83:e7:2f:f9:1e:4c:93:65:47:f2:ae:d1:61:bb:7c:
                    51:e4:17:7b:c6:1a:f9:21:54:50:06:36:36:06:b2:
                    88:bd:46:75:2b:27:df:a6:4b:89:d4:11:07:66:7a:
                    7f:44:23:3b:1f:13:4f:66:af:04:d0:1b:b7:55:67:
                    1b:04:ef:6b:fc:a8:f4:9d:69:e7:af:ec:f2:c2:bb:
                    3f:f0:70:82:ef:50:3f:77:4b:3c:dc:ec:b2:ed:90:
                    ef:67:bc:c5:a3:3c:8b:77:ab:e0:ac:7d:d6:3e:e3:
                    79:8b:f8:5b:97:88:45:17:28:3e:3d:22:ae:8b:3f:
                    94:4f:05:d3:f1:77:9c:be:49:a1:dd:53:e0:f6:46:
                    9c:8c:1c:eb:a0:5b:4f:fc:a5:45:34:e4:40:2a:3f:
                    d9:3c:0c:2a:f7:0a:ac:cf:18:2f:94:04:5d:d4:7b:
                    c3:bf:5b:a4:81:cb:39:d9:e6:64:66:6a:6a:52:d5:
                    f1:f8:9d:27:cd:c4:08:32:74:5c:37:9f:66:64:f4:
                    b6:b2:ea:69:6c:c4:60:1f:3f:bf:9e:8e:da:3c:aa:
                    15:06:05:f5:4d:86:d9:71:66:52:6a:95:0b:ab:df:
                    d9:af:30:9f:f1:a2:43:5d:cb:dc:c7:a5:d3:4b:67:
                    c3:78:79
                Exponent: 65537 (0x10001)
        X509v3 extensions:
            X509v3 Basic Constraints: critical
                CA:FALSE
            X509v3 Subject Key Identifier: 
                ED:BD:8F:03:3D:21:86:4B:35:9A:E4:BE:60:F5:0B:6E:93:30:27:98
            X509v3 Authority Key Identifier: 
                keyid:EF:64:4A:61:32:B7:3A:48:DF:68:ED:C7:34:4D:A2:53:DB:6A:49:07
                DirName:/C=FR/ST=IDF/L=Paris/O=Local NODE-OPCUA Certificate Authority/CN=NodeOPCUA-CA
                serial:C8:0D:72:93:8C:CC:B7:A5

            X509v3 Subject Alternative Name: 
                URI:urn:ROK:NodeOPCUA-Server, DNS:localhost, DNS:ROK
            Netscape Comment: 
                OpenSSL Generated Certificate
            X509v3 Key Usage: critical
                Digital Signature, Non Repudiation, Key Encipherment, Data Encipherment, Key Agreement, Certificate Sign
            X509v3 Extended Key Usage: critical
                TLS Web Server Authentication, TLS Web Client Authentication
    Signature Algorithm: sha256WithRSAEncryption
         01:66:9f:f4:e7:43:23:d0:6c:74:c9:e6:94:56:43:53:62:0a:
         85:2a:d0:7c:a6:ab:ca:c5:03:37:ee:3b:c2:69:03:8c:e2:f8:
         ad:58:d1:36:11:36:3d:a2:d3:eb:87:4e:4a:91:9a:fd:86:d7:
         3e:ba:92:97:95:0b:11:8e:6e:96:df:10:dd:fa:ba:8e:fd:40:
         84:26:20:5e:4a:f1:47:fa:f0:a3:e9:23:17:6e:ae:d8:64:f5:
         7a:b4:d1:cf:ff:1e:0a:e9:cb:28:fe:48:d6:38:79:72:a3:39:
         53:50:90:41:cf:dd:07:83:40:cb:7f:b5:d8:58:57:58:72:1c:
         77:bf:9c:98:c4:f4:a0:c3:79:c8:2d:5c:2a:e0:a3:8b:c8:01:
         6e:cc:bc:58:53:bc:1a:b9:cc:1d:bc:f8:02:78:db:c9:42:4e:
         03:58:84:71:28:27:c9:2b:19:0c:29:32:ac:aa:89:37:d2:f3:
         06:54:30:48:cd:5c:3d:f9:58:4e:3c:da:9f:9e:cf:45:39:57:
         33:f1:69:d0:67:c7:d8:5c:c3:57:b5:8f:bb:07:db:a5:4c:a1:
         4c:e5:ab:02:ee:46:f1:7d:3e:1b:5a:ca:2c:9e:d0:88:bf:ef:
         27:b0:ce:7e:c8:30:2c:c2:73:43:cc:51:e2:ce:37:e6:d8:f3:
         6d:b2:1f:5e
-----BEGIN CERTIFICATE-----
MIIFmDCCBICgAwIBAgICEA4wDQYJKoZIhvcNAQELBQAwczELMAkGA1UEBhMCRlIx
DDAKBgNVBAgTA0lERjEOMAwGA1UEBxMFUGFyaXMxLzAtBgNVBAoTJkxvY2FsIE5P
REUtT1BDVUEgQ2VydGlmaWNhdGUgQXV0aG9yaXR5MRUwEwYDVQQDEwxOb2RlT1BD
VUEtQ0EwIhgPMjAxODA1MTUxMzU5NDdaGA8yMDE5MDUxNTEzNTk0N1owNTELMAkG
A1UEBhMCRlIxEjAQBgNVBAoMCU5vZGVPUENVQTESMBAGA1UEAwwJTm9kZU9QQ1VB
MIICIjANBgkqhkiG9w0BAQEFAAOCAg8AMIICCgKCAgEAynVjUWEer/pTsCYBgdO+
Qrwrlw3iSPO+PBMidVH3zxjaT634j6N+5YDdMQLrjqm8vUFxrPuDMJSXAuYqAcgg
J10OLfPsG68gg3Pa1Nn+9tM3hRYxnqH8eCPOWaZhlqLSN7BNEBpvElUWqkaJ/wmC
VNHwarBLQz3dzWk25iAjSwTA3qe7iYx9RxZamto+lSmlll7pKESM8g9pIhxqPcXI
jLSKBudZNA2KGHErzVzntKQ6pGOQLKd5njqViWat+3BfFn8mvFesZ8J7QCazP5Ax
AdgTC6a5+XJa4M52tWFmqXGkiiSNcE0vPLAh8g0sCvZwAfxINpJ5rjE+euVz6iPT
04rZZBIr9fewLKaH5r+D5y/5HkyTZUfyrtFhu3xR5Bd7xhr5IVRQBjY2BrKIvUZ1
KyffpkuJ1BEHZnp/RCM7HxNPZq8E0Bu3VWcbBO9r/Kj0nWnnr+zywrs/8HCC71A/
d0s83Oyy7ZDvZ7zFozyLd6vgrH3WPuN5i/hbl4hFFyg+PSKuiz+UTwXT8Xecvkmh
3VPg9kacjBzroFtP/KVFNORAKj/ZPAwq9wqszxgvlARd1HvDv1ukgcs52eZkZmpq
UtXx+J0nzcQIMnRcN59mZPS2suppbMRgHz+/no7aPKoVBgX1TYbZcWZSapULq9/Z
rzCf8aJDXcvcx6XTS2fDeHkCAwEAAaOCAW4wggFqMAwGA1UdEwEB/wQCMAAwHQYD
VR0OBBYEFO29jwM9IYZLNZrkvmD1C26TMCeYMIGlBgNVHSMEgZ0wgZqAFO9kSmEy
tzpI32jtxzRNolPbakkHoXekdTBzMQswCQYDVQQGEwJGUjEMMAoGA1UECBMDSURG
MQ4wDAYDVQQHEwVQYXJpczEvMC0GA1UEChMmTG9jYWwgTk9ERS1PUENVQSBDZXJ0
aWZpY2F0ZSBBdXRob3JpdHkxFTATBgNVBAMTDE5vZGVPUENVQS1DQYIJAMgNcpOM
zLelMDMGA1UdEQQsMCqGGHVybjpST0s6Tm9kZU9QQ1VBLVNlcnZlcoIJbG9jYWxo
b3N0ggNST0swLAYJYIZIAYb4QgENBB8WHU9wZW5TU0wgR2VuZXJhdGVkIENlcnRp
ZmljYXRlMA4GA1UdDwEB/wQEAwIC/DAgBgNVHSUBAf8EFjAUBggrBgEFBQcDAQYI
KwYBBQUHAwIwDQYJKoZIhvcNAQELBQADggEBAAFmn/TnQyPQbHTJ5pRWQ1NiCoUq
0Hymq8rFAzfuO8JpA4zi+K1Y0TYRNj2i0+uHTkqRmv2G1z66kpeVCxGObpbfEN36
uo79QIQmIF5K8Uf68KPpIxdurthk9Xq00c//Hgrpyyj+SNY4eXKjOVNQkEHP3QeD
QMt/tdhYV1hyHHe/nJjE9KDDecgtXCrgo4vIAW7MvFhTvBq5zB28+AJ428lCTgNY
hHEoJ8krGQwpMqyqiTfS8wZUMEjNXD35WE482p+ez0U5VzPxadBnx9hcw1e1j7sH
26VMoUzlqwLuRvF9Phtayiye0Ii/7yewzn7IMCzCc0PMUeLON+bY822yH14=
-----END CERTIFICATE-----
