Certificate:
    Data:
        Version: 3 (0x2)
        Serial Number: 4111 (0x100f)
    Signature Algorithm: sha256WithRSAEncryption
        Issuer: O=NodeOPCUA, CN=NodeOPCUA
        Validity
            Not Before: May 15 13:59:47 2018 GMT
            Not After : May 15 13:59:47 2019 GMT
        Subject: O=NodeOPCUA, CN=NodeOPCUA
        Subject Public Key Info:
            Public Key Algorithm: rsaEncryption
                Public-Key: (4096 bit)
                Modulus:
                    00:ca:75:63:51:61:1e:af:fa:53:b0:26:01:81:d3:
                    be:42:bc:2b:97:0d:e2:48:f3:be:3c:13:22:75:51:
                    f7:cf:18:da:4f:ad:f8:8f:a3:7e:e5:80:dd:31:02:
                    eb:8e:a9:bc:bd:41:71:ac:fb:83:30:94:97:02:e6:
                    2a:01:c8:20:27:5d:0e:2d:f3:ec:1b:af:20:83:73:
                    da:d4:d9:fe:f6:d3:37:85:16:31:9e:a1:fc:78:23:
                    ce:59:a6:61:96:a2:d2:37:b0:4d:10:1a:6f:12:55:
                    16:aa:46:89:ff:09:82:54:d1:f0:6a:b0:4b:43:3d:
                    dd:cd:69:36:e6:20:23:4b:04:c0:de:a7:bb:89:8c:
                    7d:47:16:5a:9a:da:3e:95:29:a5:96:5e:e9:28:44:
                    8c:f2:0f:69:22:1c:6a:3d:c5:c8:8c:b4:8a:06:e7:
                    59:34:0d:8a:18:71:2b:cd:5c:e7:b4:a4:3a:a4:63:
                    90:2c:a7:79:9e:3a:95:89:66:ad:fb:70:5f:16:7f:
                    26:bc:57:ac:67:c2:7b:40:26:b3:3f:90:31:01:d8:
                    13:0b:a6:b9:f9:72:5a:e0:ce:76:b5:61:66:a9:71:
                    a4:8a:24:8d:70:4d:2f:3c:b0:21:f2:0d:2c:0a:f6:
                    70:01:fc:48:36:92:79:ae:31:3e:7a:e5:73:ea:23:
                    d3:d3:8a:d9:64:12:2b:f5:f7:b0:2c:a6:87:e6:bf:
                    83:e7:2f:f9:1e:4c:93:65:47:f2:ae:d1:61:bb:7c:
                    51:e4:17:7b:c6:1a:f9:21:54:50:06:36:36:06:b2:
                    88:bd:46:75:2b:27:df:a6:4b:89:d4:11:07:66:7a:
                    7f:44:23:3b:1f:13:4f:66:af:04:d0:1b:b7:55:67:
                    1b:04:ef:6b:fc:a8:f4:9d:69:e7:af:ec:f2:c2:bb:
                    3f:f0:70:82:ef:50:3f:77:4b:3c:dc:ec:b2:ed:90:
                    ef:67:bc:c5:a3:3c:8b:77:ab:e0:ac:7d:d6:3e:e3:
                    79:8b:f8:5b:97:88:45:17:28:3e:3d:22:ae:8b:3f:
                    94:4f:05:d3:f1:77:9c:be:49:a1:dd:53:e0:f6:46:
                    9c:8c:1c:eb:a0:5b:4f:fc:a5:45:34:e4:40:2a:3f:
                    d9:3c:0c:2a:f7:0a:ac:cf:18:2f:94:04:5d:d4:7b:
                    c3:bf:5b:a4:81:cb:39:d9:e6:64:66:6a:6a:52:d5:
                    f1:f8:9d:27:cd:c4:08:32:74:5c:37:9f:66:64:f4:
                    b6:b2:ea:69:6c:c4:60:1f:3f:bf:9e:8e:da:3c:aa:
                    15:06:05:f5:4d:86:d9:71:66:52:6a:95:0b:ab:df:
                    d9:af:30:9f:f1:a2:43:5d:cb:dc:c7:a5:d3:4b:67:
                    c3:78:79
                Exponent: 65537 (0x10001)
        X509v3 extensions:
            X509v3 Basic Constraints: critical
                CA:FALSE
            X509v3 Subject Key Identifier: 
                ED:BD:8F:03:3D:21:86:4B:35:9A:E4:BE:60:F5:0B:6E:93:30:27:98
            X509v3 Authority Key Identifier: 
                keyid:ED:BD:8F:03:3D:21:86:4B:35:9A:E4:BE:60:F5:0B:6E:93:30:27:98
                DirName:/O=NodeOPCUA/CN=NodeOPCUA
                serial:10:0F

            X509v3 Subject Alternative Name: 
                URI:urn:ROK:NodeOPCUA-Server, DNS:localhost, DNS:ROK
            Netscape Comment: 
                OpenSSL Generated Certificate
            X509v3 Key Usage: critical
                Digital Signature, Non Repudiation, Key Encipherment, Data Encipherment, Key Agreement, Certificate Sign
            X509v3 Extended Key Usage: critical
                TLS Web Server Authentication, TLS Web Client Authentication
    Signature Algorithm: sha256WithRSAEncryption
         3d:1c:1a:08:f0:04:a5:55:a5:21:24:0b:1b:93:91:68:8d:48:
         ab:f6:66:26:26:21:db:30:4d:b6:4e:1c:56:91:94:45:4f:ad:
         8d:3a:28:de:9b:d0:7e:76:60:26:68:a6:78:d1:59:63:57:18:
         d4:08:47:eb:e7:a5:fc:14:25:ad:1b:e0:36:f5:9b:70:37:fd:
         6c:dc:1e:a5:e8:e9:4a:46:d3:5b:c6:21:3f:0f:11:a5:0e:d9:
         f8:9a:7f:55:06:53:15:58:b5:78:2c:b5:76:85:96:fe:4e:f5:
         d5:94:cb:91:c8:5a:c5:74:40:26:f7:ec:87:03:92:63:37:ec:
         ba:94:d8:40:88:a3:d5:9d:e9:df:29:02:59:0c:b0:07:81:96:
         7a:64:72:18:c8:a6:b8:04:d5:70:05:40:f1:16:c4:1d:9b:70:
         9a:af:81:27:ce:f7:a3:93:3b:3d:af:8d:26:c9:6b:2e:69:a4:
         d0:fe:0b:80:af:e1:f8:a5:b0:11:78:12:95:d0:79:90:c5:59:
         7c:97:8b:df:b7:64:18:14:1b:86:e2:23:14:70:19:06:a9:80:
         a9:9b:47:7c:9e:a7:2f:13:f5:f7:71:05:a9:cf:5f:20:a2:aa:
         8b:b9:b5:48:20:7b:84:5b:43:e9:85:50:66:0a:e2:49:25:5f:
         a4:bf:c3:58:f2:ba:61:4c:a0:eb:9e:d1:8b:24:f1:19:ae:4d:
         04:29:56:26:e5:8c:30:db:dc:30:b4:b8:13:e3:62:1a:35:83:
         bc:65:f9:04:f7:ed:40:d2:b8:4d:b3:1c:90:0c:ca:c0:e5:dc:
         43:9a:f3:93:cf:71:0d:39:d1:0b:b8:bd:76:6a:b9:dc:55:34:
         9b:f6:94:7d:f4:aa:d1:aa:dc:22:da:04:93:b3:90:fd:d9:a2:
         35:8d:7b:11:0b:72:d0:40:57:6c:63:8e:13:03:08:dc:e7:8b:
         9f:d9:7f:65:2b:a2:de:61:84:24:b5:3d:63:5f:98:71:c2:9b:
         0e:64:0b:ee:14:20:5e:61:b5:f4:c0:61:e5:e1:15:0a:45:1c:
         3d:98:2f:f5:54:81:59:80:7e:e1:e5:20:5a:7d:3f:14:64:29:
         a6:09:ae:50:b3:88:4f:7a:a8:35:34:7b:99:8a:22:a2:9a:72:
         63:51:ff:7f:d5:b2:6c:ac:a1:f7:ba:9f:49:07:47:13:bd:b9:
         bf:aa:9e:d0:24:c6:cf:e9:e3:bc:7f:53:32:51:9f:59:06:cb:
         d4:51:28:e6:52:ea:da:fc:0d:0d:44:10:de:67:bb:4a:a3:6c:
         c1:64:e3:bc:bb:34:d3:a2:ba:04:23:04:cb:d8:31:4c:8d:73:
         26:8d:9e:f3:d9:0d:7e:0f
-----BEGIN CERTIFICATE-----
MIIF6zCCA9OgAwIBAgICEA8wDQYJKoZIhvcNAQELBQAwKDESMBAGA1UEChMJTm9k
ZU9QQ1VBMRIwEAYDVQQDEwlOb2RlT1BDVUEwIhgPMjAxODA1MTUxMzU5NDdaGA8y
MDE5MDUxNTEzNTk0N1owKDESMBAGA1UEChMJTm9kZU9QQ1VBMRIwEAYDVQQDEwlO
b2RlT1BDVUEwggIiMA0GCSqGSIb3DQEBAQUAA4ICDwAwggIKAoICAQDKdWNRYR6v
+lOwJgGB075CvCuXDeJI8748EyJ1UffPGNpPrfiPo37lgN0xAuuOqby9QXGs+4Mw
lJcC5ioByCAnXQ4t8+wbryCDc9rU2f720zeFFjGeofx4I85ZpmGWotI3sE0QGm8S
VRaqRon/CYJU0fBqsEtDPd3NaTbmICNLBMDep7uJjH1HFlqa2j6VKaWWXukoRIzy
D2kiHGo9xciMtIoG51k0DYoYcSvNXOe0pDqkY5Asp3meOpWJZq37cF8Wfya8V6xn
wntAJrM/kDEB2BMLprn5clrgzna1YWapcaSKJI1wTS88sCHyDSwK9nAB/Eg2knmu
MT565XPqI9PTitlkEiv197Aspofmv4PnL/keTJNlR/Ku0WG7fFHkF3vGGvkhVFAG
NjYGsoi9RnUrJ9+mS4nUEQdmen9EIzsfE09mrwTQG7dVZxsE72v8qPSdaeev7PLC
uz/wcILvUD93Szzc7LLtkO9nvMWjPIt3q+CsfdY+43mL+FuXiEUXKD49Iq6LP5RP
BdPxd5y+SaHdU+D2RpyMHOugW0/8pUU05EAqP9k8DCr3CqzPGC+UBF3Ue8O/W6SB
yznZ5mRmampS1fH4nSfNxAgydFw3n2Zk9Lay6mlsxGAfP7+ejto8qhUGBfVNhtlx
ZlJqlQur39mvMJ/xokNdy9zHpdNLZ8N4eQIDAQABo4IBGTCCARUwDAYDVR0TAQH/
BAIwADAdBgNVHQ4EFgQU7b2PAz0hhks1muS+YPULbpMwJ5gwUQYDVR0jBEowSIAU
7b2PAz0hhks1muS+YPULbpMwJ5ihLKQqMCgxEjAQBgNVBAoTCU5vZGVPUENVQTES
MBAGA1UEAxMJTm9kZU9QQ1VBggIQDzAzBgNVHREELDAqhhh1cm46Uk9LOk5vZGVP
UENVQS1TZXJ2ZXKCCWxvY2FsaG9zdIIDUk9LMCwGCWCGSAGG+EIBDQQfFh1PcGVu
U1NMIEdlbmVyYXRlZCBDZXJ0aWZpY2F0ZTAOBgNVHQ8BAf8EBAMCAvwwIAYDVR0l
AQH/BBYwFAYIKwYBBQUHAwEGCCsGAQUFBwMCMA0GCSqGSIb3DQEBCwUAA4ICAQA9
HBoI8ASlVaUhJAsbk5FojUir9mYmJiHbME22ThxWkZRFT62NOijem9B+dmAmaKZ4
0VljVxjUCEfr56X8FCWtG+A29ZtwN/1s3B6l6OlKRtNbxiE/DxGlDtn4mn9VBlMV
WLV4LLV2hZb+TvXVlMuRyFrFdEAm9+yHA5JjN+y6lNhAiKPVnenfKQJZDLAHgZZ6
ZHIYyKa4BNVwBUDxFsQdm3Car4Enzvejkzs9r40myWsuaaTQ/guAr+H4pbAReBKV
0HmQxVl8l4vft2QYFBuG4iMUcBkGqYCpm0d8nqcvE/X3cQWpz18goqqLubVIIHuE
W0PphVBmCuJJJV+kv8NY8rphTKDrntGLJPEZrk0EKVYm5Yww29wwtLgT42IaNYO8
ZfkE9+1A0rhNsxyQDMrA5dxDmvOTz3ENOdELuL12arncVTSb9pR99KrRqtwi2gST
s5D92aI1jXsRC3LQQFdsY44TAwjc54uf2X9lK6LeYYQktT1jX5hxwpsOZAvuFCBe
YbX0wGHl4RUKRRw9mC/1VIFZgH7h5SBafT8UZCmmCa5Qs4hPeqg1NHuZiiKimnJj
Uf9/1bJsrKH3up9JB0cTvbm/qp7QJMbP6eO8f1MyUZ9ZBsvUUSjmUura/A0NRBDe
Z7tKo2zBZOO8uzTToroEIwTL2DFMjXMmjZ7z2Q1+Dw==
-----END CERTIFICATE-----
