Certificate:
    Data:
        Version: 3 (0x2)
        Serial Number: 4116 (0x1014)
    Signature Algorithm: sha256WithRSAEncryption
        Issuer: C=FR, ST=IDF, L=Paris, O=Local NODE-OPCUA Certificate Authority, CN=NodeOPCUA-CA
        Validity
            Not Before: May 15 13:59:47 2018 GMT
            Not After : May 15 13:59:47 2019 GMT
        Subject: C=FR, O=NodeOPCUA, CN=NodeOPCUA
        Subject Public Key Info:
            Public Key Algorithm: rsaEncryption
                Public-Key: (3072 bit)
                Modulus:
                    00:c5:8a:2c:8c:5c:f0:58:fe:73:29:53:81:d5:fd:
                    e4:19:f2:57:c8:03:3e:d0:49:b0:14:22:d2:76:21:
                    a5:00:07:81:9b:77:80:b2:9f:c4:0d:0a:9a:05:0b:
                    8b:c1:db:ae:25:f6:88:b3:06:e5:48:dd:83:e2:3a:
                    e3:b6:7b:c7:8d:c8:9a:f8:fb:c0:62:84:07:8f:a4:
                    cb:1a:89:6b:3c:22:01:75:a7:f3:d9:4f:68:4c:b9:
                    b9:ec:75:bf:98:5f:f7:35:32:8d:27:39:d4:12:52:
                    bd:77:cb:ad:73:12:3e:f9:32:b2:7c:3d:c1:8e:e1:
                    62:76:8c:1c:35:bc:25:42:1e:cf:ba:31:37:d4:ba:
                    4c:8a:75:30:1c:ff:6a:78:1f:e0:2c:14:ef:1d:76:
                    d9:55:7c:98:69:58:87:d8:71:0f:eb:d2:89:17:2d:
                    da:fa:37:59:3e:30:42:58:97:53:63:d1:5e:2e:cf:
                    a6:2e:05:a3:dd:7c:d1:b3:b7:ec:4f:08:30:d4:38:
                    f9:a2:61:f9:1f:b3:2e:ee:db:9f:b6:77:2c:35:c4:
                    b4:9e:ce:86:19:05:3d:1f:0f:5a:1d:2f:0d:a7:2c:
                    16:8d:b8:cd:b1:94:a1:80:7b:4d:67:7f:4e:70:0e:
                    6f:66:b4:bd:29:9d:1e:2b:cf:53:a2:2a:66:b9:6f:
                    9f:1c:55:e9:34:75:7b:01:23:0d:4b:8c:b1:74:36:
                    76:a1:4d:47:dc:e9:f4:ec:d2:a1:cb:df:0e:17:2b:
                    f6:38:e4:d5:90:45:ea:b8:bc:0b:8b:ca:06:83:e0:
                    c5:be:30:3d:6a:8d:fb:04:c1:f0:29:b5:93:4a:ce:
                    a7:43:78:b2:0b:9e:48:8c:3d:95:2d:64:48:a9:29:
                    9e:c2:d3:18:0d:8b:06:d1:a4:fa:b3:b7:4d:e8:e8:
                    4b:c0:dc:56:dc:2c:9d:67:e9:2f:dd:18:c0:20:97:
                    d3:8c:0f:4a:09:77:c5:09:86:58:dd:f2:06:bf:67:
                    d2:f1:93:74:65:41:00:9f:72:13
                Exponent: 65537 (0x10001)
        X509v3 extensions:
            X509v3 Basic Constraints: critical
                CA:FALSE
            X509v3 Subject Key Identifier: 
                0B:B5:F2:41:66:30:EB:D8:A4:BB:F8:76:81:F3:05:B5:C7:2C:26:15
            X509v3 Authority Key Identifier: 
                keyid:EF:64:4A:61:32:B7:3A:48:DF:68:ED:C7:34:4D:A2:53:DB:6A:49:07
                DirName:/C=FR/ST=IDF/L=Paris/O=Local NODE-OPCUA Certificate Authority/CN=NodeOPCUA-CA
                serial:C8:0D:72:93:8C:CC:B7:A5

            X509v3 Subject Alternative Name: 
                URI:urn:ROK:NodeOPCUA-DiscoveryServer, DNS:localhost, DNS:ROK
            Netscape Comment: 
                OpenSSL Generated Certificate
            X509v3 Key Usage: critical
                Digital Signature, Non Repudiation, Key Encipherment, Data Encipherment, Key Agreement, Certificate Sign
            X509v3 Extended Key Usage: critical
                TLS Web Server Authentication, TLS Web Client Authentication
    Signature Algorithm: sha256WithRSAEncryption
         2c:ed:af:ef:62:0c:cf:d7:ef:9e:5c:41:7e:1f:0b:20:c9:ad:
         1c:72:e6:f8:de:5c:6c:f8:b5:61:89:cd:03:5e:6e:3e:98:c0:
         62:ed:42:7b:00:0e:fb:78:a5:0a:12:3c:ac:bf:07:96:1f:ef:
         2e:77:f9:c4:76:6a:37:08:61:af:7f:31:4f:4d:66:02:6d:84:
         20:41:f2:06:ba:a9:3c:74:23:bf:2c:b5:2b:86:c4:dc:8e:fb:
         46:d6:98:17:13:f4:b7:f6:d0:59:f5:1b:3d:8a:74:80:2c:7b:
         e1:ff:1b:11:84:65:3b:05:97:6b:98:7d:df:4f:d9:55:d1:65:
         25:1a:33:37:c1:f9:12:1a:cd:d8:47:d7:dd:c4:02:59:90:82:
         81:ae:fe:81:61:36:a1:2e:b9:b1:76:7f:3b:5b:73:a8:08:10:
         a5:7b:77:a8:fe:48:dc:96:17:15:43:a2:ed:a1:54:33:ce:17:
         f3:56:38:d7:2b:4d:e4:ff:93:83:7f:10:3d:1f:1d:55:38:ef:
         f9:45:7f:1b:0a:4e:8c:cc:ef:3a:9b:4f:fc:70:68:06:ad:2f:
         93:a0:81:aa:fb:86:67:38:15:9c:28:97:b1:e5:0e:f4:0a:4c:
         b6:71:48:8a:96:d7:27:8d:9d:64:4b:09:b1:85:4a:42:74:09:
         01:7e:ea:00
-----BEGIN CERTIFICATE-----
MIIFITCCBAmgAwIBAgICEBQwDQYJKoZIhvcNAQELBQAwczELMAkGA1UEBhMCRlIx
DDAKBgNVBAgTA0lERjEOMAwGA1UEBxMFUGFyaXMxLzAtBgNVBAoTJkxvY2FsIE5P
REUtT1BDVUEgQ2VydGlmaWNhdGUgQXV0aG9yaXR5MRUwEwYDVQQDEwxOb2RlT1BD
VUEtQ0EwIhgPMjAxODA1MTUxMzU5NDdaGA8yMDE5MDUxNTEzNTk0N1owNTELMAkG
A1UEBhMCRlIxEjAQBgNVBAoMCU5vZGVPUENVQTESMBAGA1UEAwwJTm9kZU9QQ1VB
MIIBojANBgkqhkiG9w0BAQEFAAOCAY8AMIIBigKCAYEAxYosjFzwWP5zKVOB1f3k
GfJXyAM+0EmwFCLSdiGlAAeBm3eAsp/EDQqaBQuLwduuJfaIswblSN2D4jrjtnvH
jcia+PvAYoQHj6TLGolrPCIBdafz2U9oTLm57HW/mF/3NTKNJznUElK9d8utcxI+
+TKyfD3BjuFidowcNbwlQh7PujE31LpMinUwHP9qeB/gLBTvHXbZVXyYaViH2HEP
69KJFy3a+jdZPjBCWJdTY9FeLs+mLgWj3XzRs7fsTwgw1Dj5omH5H7Mu7tuftncs
NcS0ns6GGQU9Hw9aHS8NpywWjbjNsZShgHtNZ39OcA5vZrS9KZ0eK89ToipmuW+f
HFXpNHV7ASMNS4yxdDZ2oU1H3On07NKhy98OFyv2OOTVkEXquLwLi8oGg+DFvjA9
ao37BMHwKbWTSs6nQ3iyC55IjD2VLWRIqSmewtMYDYsG0aT6s7dN6OhLwNxW3Cyd
Z+kv3RjAIJfTjA9KCXfFCYZY3fIGv2fS8ZN0ZUEAn3ITAgMBAAGjggF3MIIBczAM
BgNVHRMBAf8EAjAAMB0GA1UdDgQWBBQLtfJBZjDr2KS7+HaB8wW1xywmFTCBpQYD
VR0jBIGdMIGagBTvZEphMrc6SN9o7cc0TaJT22pJB6F3pHUwczELMAkGA1UEBhMC
RlIxDDAKBgNVBAgTA0lERjEOMAwGA1UEBxMFUGFyaXMxLzAtBgNVBAoTJkxvY2Fs
IE5PREUtT1BDVUEgQ2VydGlmaWNhdGUgQXV0aG9yaXR5MRUwEwYDVQQDEwxOb2Rl
T1BDVUEtQ0GCCQDIDXKTjMy3pTA8BgNVHREENTAzhiF1cm46Uk9LOk5vZGVPUENV
QS1EaXNjb3ZlcnlTZXJ2ZXKCCWxvY2FsaG9zdIIDUk9LMCwGCWCGSAGG+EIBDQQf
Fh1PcGVuU1NMIEdlbmVyYXRlZCBDZXJ0aWZpY2F0ZTAOBgNVHQ8BAf8EBAMCAvww
IAYDVR0lAQH/BBYwFAYIKwYBBQUHAwEGCCsGAQUFBwMCMA0GCSqGSIb3DQEBCwUA
A4IBAQAs7a/vYgzP1++eXEF+Hwsgya0ccub43lxs+LVhic0DXm4+mMBi7UJ7AA77
eKUKEjysvweWH+8ud/nEdmo3CGGvfzFPTWYCbYQgQfIGuqk8dCO/LLUrhsTcjvtG
1pgXE/S39tBZ9Rs9inSALHvh/xsRhGU7BZdrmH3fT9lV0WUlGjM3wfkSGs3YR9fd
xAJZkIKBrv6BYTahLrmxdn87W3OoCBCle3eo/kjclhcVQ6LtoVQzzhfzVjjXK03k
/5ODfxA9Hx1VOO/5RX8bCk6MzO86m0/8cGgGrS+ToIGq+4ZnOBWcKJex5Q70Cky2
cUiKltcnjZ1kSwmxhUpCdAkBfuoA
-----END CERTIFICATE-----
