Certificate:
    Data:
        Version: 3 (0x2)
        Serial Number: 4119 (0x1017)
    Signature Algorithm: sha256WithRSAEncryption
        Issuer: O=NodeOPCUA, CN=NodeOPCUA
        Validity
            Not Before: May 15 13:59:47 2018 GMT
            Not After : May 15 13:59:47 2019 GMT
        Subject: O=NodeOPCUA, CN=NodeOPCUA
        Subject Public Key Info:
            Public Key Algorithm: rsaEncryption
                Public-Key: (4096 bit)
                Modulus:
                    00:c1:d0:5a:13:08:10:0f:d1:f7:9d:36:65:8d:1f:
                    76:b2:2b:59:12:6f:7a:63:6f:b6:c7:7a:0a:ec:80:
                    33:30:4b:c9:28:c6:24:61:11:a4:18:08:cd:6e:94:
                    03:42:c2:17:8e:ed:90:a2:b4:33:f0:78:e9:40:62:
                    59:1f:3c:46:bb:3f:7b:c0:22:98:21:10:3b:7d:b8:
                    63:3e:e8:63:72:52:5b:37:20:b9:a3:9b:ae:02:bc:
                    7a:e0:a6:97:1b:ac:a8:f5:1b:35:e3:28:8c:a2:09:
                    73:6e:2e:a0:ee:82:11:f2:65:24:c2:22:8a:45:cd:
                    0a:16:ec:d6:b9:4d:a1:e5:8b:8a:c8:a2:7b:9e:3e:
                    b1:74:3c:4a:0f:49:e8:db:57:a5:5d:60:5a:e4:a5:
                    ed:cd:f9:85:05:ca:39:43:5d:f9:bd:09:36:24:64:
                    9e:6d:df:55:f6:f5:a0:1a:55:c6:41:44:d5:e1:bd:
                    bb:51:9f:a2:8d:cf:a5:0d:4d:87:2e:15:78:89:04:
                    bf:08:5a:87:6c:94:00:1b:ab:6b:ce:9c:41:aa:b9:
                    4a:8b:df:e0:91:24:14:2f:64:22:00:04:d1:c1:c4:
                    33:b7:a2:86:08:09:dd:7b:28:17:23:04:01:b5:8f:
                    59:e4:26:63:2e:c0:95:e1:44:09:0a:a5:1d:ba:88:
                    83:03:5f:70:24:29:fc:c8:1f:d8:7e:27:3d:99:f9:
                    02:b4:74:11:c5:88:82:98:4d:c9:ca:4b:37:52:d6:
                    25:48:d7:b7:09:74:0f:d4:bd:a1:a6:71:c0:bb:45:
                    ce:b9:74:d6:80:32:6b:2e:cf:8d:3c:f8:f4:14:11:
                    b1:3a:f1:6e:e5:9f:19:21:c0:d9:a1:50:40:a8:30:
                    1c:3c:88:c8:08:0b:e9:cc:d7:6f:eb:4f:5a:da:20:
                    02:cc:60:91:d6:97:b3:07:26:19:ab:bd:c6:7e:aa:
                    4f:ef:13:da:18:ea:6c:83:ac:0c:3c:4e:7a:f4:ac:
                    47:53:7c:46:7d:f9:f7:7f:82:fa:cc:00:63:de:5d:
                    44:c8:15:9d:05:60:36:f9:9e:99:e0:a6:14:a1:45:
                    10:57:38:c0:4d:eb:b6:fa:3c:d9:e1:17:16:e8:8d:
                    90:61:c1:91:72:92:7f:a9:55:06:e4:f6:e0:db:63:
                    b1:42:51:38:be:d0:f1:a2:48:c0:f1:21:c2:e9:93:
                    b2:eb:53:63:76:e7:90:58:cc:ed:9c:e9:25:8a:53:
                    12:93:5f:c2:6c:f9:e1:f5:2a:75:eb:dd:36:58:16:
                    94:3b:51:a6:ac:a7:ed:89:21:d4:8b:50:40:12:7b:
                    fe:01:4a:af:72:1e:6a:cc:c0:4f:7f:6f:7e:bd:5d:
                    b0:d8:f7
                Exponent: 65537 (0x10001)
        X509v3 extensions:
            X509v3 Basic Constraints: critical
                CA:FALSE
            X509v3 Subject Key Identifier: 
                F3:31:57:CB:EA:9D:42:0D:30:9C:6E:25:0C:F6:61:7A:D7:97:B9:EB
            X509v3 Authority Key Identifier: 
                keyid:F3:31:57:CB:EA:9D:42:0D:30:9C:6E:25:0C:F6:61:7A:D7:97:B9:EB
                DirName:/O=NodeOPCUA/CN=NodeOPCUA
                serial:10:17

            X509v3 Subject Alternative Name: 
                URI:urn:ROK:NodeOPCUA-DiscoveryServer, DNS:localhost, DNS:ROK
            Netscape Comment: 
                OpenSSL Generated Certificate
            X509v3 Key Usage: critical
                Digital Signature, Non Repudiation, Key Encipherment, Data Encipherment, Key Agreement, Certificate Sign
            X509v3 Extended Key Usage: critical
                TLS Web Server Authentication, TLS Web Client Authentication
    Signature Algorithm: sha256WithRSAEncryption
         6e:02:86:e7:ee:a4:ef:e3:b6:12:40:79:97:58:f9:b7:88:1c:
         24:3b:d9:ce:6e:66:a1:3c:66:0d:58:86:21:65:a4:ec:2b:87:
         11:cc:8e:7a:d3:b6:be:08:f0:0f:84:6c:eb:f2:49:a3:bb:14:
         12:eb:fd:bd:ba:bb:dc:98:e7:7a:99:bf:8d:10:36:35:e8:4d:
         d0:d4:0a:8a:6b:b9:9f:06:8e:f7:24:4d:c3:84:b9:0f:2f:e7:
         c6:da:8b:57:9f:9a:60:1f:45:65:51:2b:7f:70:df:ce:cc:0c:
         52:17:5a:ce:21:54:90:b0:66:9c:0a:00:67:ad:a0:a5:3e:71:
         cb:0c:22:bd:0f:83:38:f5:d6:3b:11:3e:52:08:aa:60:98:fc:
         b5:41:ca:02:b8:c4:af:31:1d:0f:70:32:84:9e:8b:fa:8b:5b:
         97:9d:c6:04:8a:a9:12:c5:88:1e:7a:fc:f6:9a:7c:9f:25:2c:
         39:64:8b:da:67:85:71:5b:d8:54:c3:fe:a8:f3:0c:3d:84:19:
         9b:ef:ff:a4:ba:0f:37:5d:db:1a:48:09:e4:e1:87:69:98:40:
         dc:b8:6e:d0:41:65:b7:38:1c:29:ca:4c:31:05:82:02:0d:4d:
         98:c8:01:14:e0:5f:4a:b4:e5:1b:04:d1:37:09:ee:6a:21:43:
         c6:31:e4:cd:c1:ab:96:ab:b2:b8:7b:c8:cc:83:3d:7a:e9:88:
         ad:79:66:a6:72:72:30:70:a0:85:82:d0:4c:a1:98:3b:f0:16:
         c1:de:78:10:dc:93:51:77:b9:da:dc:7c:2f:3a:bd:b5:97:e2:
         a0:c8:09:18:c9:6a:d5:89:6e:8d:b2:76:0d:26:f9:64:e1:ab:
         f0:f1:db:1e:92:2e:4b:fc:a0:8a:0a:bb:2f:a0:49:fa:56:4e:
         cd:d2:73:f5:d7:c3:7f:57:d9:36:38:18:f2:11:e1:c5:0c:b2:
         cd:cb:59:50:24:8a:42:26:80:e8:2a:bf:81:ea:ee:ce:c2:39:
         f1:2b:0f:b3:66:b2:ff:39:a7:55:ca:74:46:b5:fd:71:87:47:
         e0:fd:61:b0:e6:5f:93:48:2c:29:cb:29:29:9e:8e:ae:1a:35:
         2e:92:5c:f4:8c:c7:ca:0f:af:68:3c:d2:ad:df:c6:95:df:e9:
         7a:e2:6a:6e:f8:7c:62:62:ff:f8:5e:09:9a:45:67:11:2a:e1:
         a6:01:3e:38:68:3e:dd:53:5c:f8:27:20:53:63:cd:bc:57:ed:
         01:28:fe:b7:25:04:64:4b:4f:d4:34:62:3c:9a:2d:d9:f1:71:
         91:ba:b1:27:8b:b5:29:7c:ad:8a:4b:99:b9:db:a6:76:67:1c:
         e0:07:f6:6e:87:ee:5a:df
-----BEGIN CERTIFICATE-----
MIIF9DCCA9ygAwIBAgICEBcwDQYJKoZIhvcNAQELBQAwKDESMBAGA1UEChMJTm9k
ZU9QQ1VBMRIwEAYDVQQDEwlOb2RlT1BDVUEwIhgPMjAxODA1MTUxMzU5NDdaGA8y
MDE5MDUxNTEzNTk0N1owKDESMBAGA1UEChMJTm9kZU9QQ1VBMRIwEAYDVQQDEwlO
b2RlT1BDVUEwggIiMA0GCSqGSIb3DQEBAQUAA4ICDwAwggIKAoICAQDB0FoTCBAP
0fedNmWNH3ayK1kSb3pjb7bHegrsgDMwS8koxiRhEaQYCM1ulANCwheO7ZCitDPw
eOlAYlkfPEa7P3vAIpghEDt9uGM+6GNyUls3ILmjm64CvHrgppcbrKj1GzXjKIyi
CXNuLqDughHyZSTCIopFzQoW7Na5TaHli4rIonuePrF0PEoPSejbV6VdYFrkpe3N
+YUFyjlDXfm9CTYkZJ5t31X29aAaVcZBRNXhvbtRn6KNz6UNTYcuFXiJBL8IWods
lAAbq2vOnEGquUqL3+CRJBQvZCIABNHBxDO3ooYICd17KBcjBAG1j1nkJmMuwJXh
RAkKpR26iIMDX3AkKfzIH9h+Jz2Z+QK0dBHFiIKYTcnKSzdS1iVI17cJdA/UvaGm
ccC7Rc65dNaAMmsuz408+PQUEbE68W7lnxkhwNmhUECoMBw8iMgIC+nM12/rT1ra
IALMYJHWl7MHJhmrvcZ+qk/vE9oY6myDrAw8Tnr0rEdTfEZ9+fd/gvrMAGPeXUTI
FZ0FYDb5npngphShRRBXOMBN67b6PNnhFxbojZBhwZFykn+pVQbk9uDbY7FCUTi+
0PGiSMDxIcLpk7LrU2N255BYzO2c6SWKUxKTX8Js+eH1KnXr3TZYFpQ7Uaasp+2J
IdSLUEASe/4BSq9yHmrMwE9/b369XbDY9wIDAQABo4IBIjCCAR4wDAYDVR0TAQH/
BAIwADAdBgNVHQ4EFgQU8zFXy+qdQg0wnG4lDPZheteXueswUQYDVR0jBEowSIAU
8zFXy+qdQg0wnG4lDPZheteXueuhLKQqMCgxEjAQBgNVBAoTCU5vZGVPUENVQTES
MBAGA1UEAxMJTm9kZU9QQ1VBggIQFzA8BgNVHREENTAzhiF1cm46Uk9LOk5vZGVP
UENVQS1EaXNjb3ZlcnlTZXJ2ZXKCCWxvY2FsaG9zdIIDUk9LMCwGCWCGSAGG+EIB
DQQfFh1PcGVuU1NMIEdlbmVyYXRlZCBDZXJ0aWZpY2F0ZTAOBgNVHQ8BAf8EBAMC
AvwwIAYDVR0lAQH/BBYwFAYIKwYBBQUHAwEGCCsGAQUFBwMCMA0GCSqGSIb3DQEB
CwUAA4ICAQBuAobn7qTv47YSQHmXWPm3iBwkO9nObmahPGYNWIYhZaTsK4cRzI56
07a+CPAPhGzr8kmjuxQS6/29urvcmOd6mb+NEDY16E3Q1AqKa7mfBo73JE3DhLkP
L+fG2otXn5pgH0VlUSt/cN/OzAxSF1rOIVSQsGacCgBnraClPnHLDCK9D4M49dY7
ET5SCKpgmPy1QcoCuMSvMR0PcDKEnov6i1uXncYEiqkSxYgeevz2mnyfJSw5ZIva
Z4VxW9hUw/6o8ww9hBmb7/+kug83XdsaSAnk4YdpmEDcuG7QQWW3OBwpykwxBYIC
DU2YyAEU4F9KtOUbBNE3Ce5qIUPGMeTNwauWq7K4e8jMgz166YiteWamcnIwcKCF
gtBMoZg78BbB3ngQ3JNRd7na3HwvOr21l+KgyAkYyWrViW6NsnYNJvlk4avw8dse
ki5L/KCKCrsvoEn6Vk7N0nP118N/V9k2OBjyEeHFDLLNy1lQJIpCJoDoKr+B6u7O
wjnxKw+zZrL/OadVynRGtf1xh0fg/WGw5l+TSCwpyykpno6uGjUuklz0jMfKD69o
PNKt38aV3+l64mpu+HxiYv/4XgmaRWcRKuGmAT44aD7dU1z4JyBTY828V+0BKP63
JQRkS0/UNGI8mi3Z8XGRurEni7UpfK2KS5m526Z2ZxzgB/Zuh+5a3w==
-----END CERTIFICATE-----
